	.file	"mem.cpp"
	.text
	.section	.text._ZnwmPv,"axG",@progbits,_ZnwmPv,comdat
	.weak	_ZnwmPv
	.type	_ZnwmPv, @function
_ZnwmPv:
.LFB38:
	.cfi_startproc
	pushq	%rbp
	.cfi_def_cfa_offset 16
	.cfi_offset 6, -16
	movq	%rsp, %rbp
	.cfi_def_cfa_register 6
	movq	%rdi, -8(%rbp)
	movq	%rsi, -16(%rbp)
	movq	-16(%rbp), %rax
	popq	%rbp
	.cfi_def_cfa 7, 8
	ret
	.cfi_endproc
.LFE38:
	.size	_ZnwmPv, .-_ZnwmPv
	.section	.rodata
	.type	_ZStL19piecewise_construct, @object
	.size	_ZStL19piecewise_construct, 1
_ZStL19piecewise_construct:
	.zero	1
	.local	_ZStL8__ioinit
	.comm	_ZStL8__ioinit,1,1
	.section	.text._ZNKSt6chrono8durationIlSt5ratioILl1ELl1000000000EEE5countEv,"axG",@progbits,_ZNKSt6chrono8durationIlSt5ratioILl1ELl1000000000EEE5countEv,comdat
	.align 2
	.weak	_ZNKSt6chrono8durationIlSt5ratioILl1ELl1000000000EEE5countEv
	.type	_ZNKSt6chrono8durationIlSt5ratioILl1ELl1000000000EEE5countEv, @function
_ZNKSt6chrono8durationIlSt5ratioILl1ELl1000000000EEE5countEv:
.LFB2168:
	.cfi_startproc
	pushq	%rbp
	.cfi_def_cfa_offset 16
	.cfi_offset 6, -16
	movq	%rsp, %rbp
	.cfi_def_cfa_register 6
	movq	%rdi, -8(%rbp)
	movq	-8(%rbp), %rax
	movq	(%rax), %rax
	popq	%rbp
	.cfi_def_cfa 7, 8
	ret
	.cfi_endproc
.LFE2168:
	.size	_ZNKSt6chrono8durationIlSt5ratioILl1ELl1000000000EEE5countEv, .-_ZNKSt6chrono8durationIlSt5ratioILl1ELl1000000000EEE5countEv
	.section	.text._ZNSt6chrono8durationIlSt5ratioILl1ELl1000000000EEEC1IlvEERKT_,"axG",@progbits,_ZNSt6chrono8durationIlSt5ratioILl1ELl1000000000EEEC1IlvEERKT_,comdat
	.align 2
	.weak	_ZNSt6chrono8durationIlSt5ratioILl1ELl1000000000EEEC1IlvEERKT_
	.type	_ZNSt6chrono8durationIlSt5ratioILl1ELl1000000000EEEC1IlvEERKT_, @function
_ZNSt6chrono8durationIlSt5ratioILl1ELl1000000000EEEC1IlvEERKT_:
.LFB2173:
	.cfi_startproc
	pushq	%rbp
	.cfi_def_cfa_offset 16
	.cfi_offset 6, -16
	movq	%rsp, %rbp
	.cfi_def_cfa_register 6
	movq	%rdi, -8(%rbp)
	movq	%rsi, -16(%rbp)
	movq	-16(%rbp), %rax
	movq	(%rax), %rdx
	movq	-8(%rbp), %rax
	movq	%rdx, (%rax)
	nop
	popq	%rbp
	.cfi_def_cfa 7, 8
	ret
	.cfi_endproc
.LFE2173:
	.size	_ZNSt6chrono8durationIlSt5ratioILl1ELl1000000000EEEC1IlvEERKT_, .-_ZNSt6chrono8durationIlSt5ratioILl1ELl1000000000EEEC1IlvEERKT_
	.text
	.globl	_Z9rand_fillPhm
	.type	_Z9rand_fillPhm, @function
_Z9rand_fillPhm:
.LFB2191:
	.cfi_startproc
	pushq	%rbp
	.cfi_def_cfa_offset 16
	.cfi_offset 6, -16
	movq	%rsp, %rbp
	.cfi_def_cfa_register 6
	subq	$32, %rsp
	movq	%rdi, -24(%rbp)
	movq	%rsi, -32(%rbp)
	movl	$1024, -12(%rbp)
	movq	$0, -8(%rbp)
.L8:
	movq	-32(%rbp), %rax
	shrq	$10, %rax
	cmpq	%rax, -8(%rbp)
	jnb	.L9
	call	rand@PLT
	movl	%eax, %ecx
	movq	-8(%rbp), %rax
	salq	$10, %rax
	movq	%rax, %rdx
	movq	-24(%rbp), %rax
	addq	%rdx, %rax
	movl	$1024, %edx
	movl	%ecx, %esi
	movq	%rax, %rdi
	call	memset@PLT
	incq	-8(%rbp)
	jmp	.L8
.L9:
	nop
	leave
	.cfi_def_cfa 7, 8
	ret
	.cfi_endproc
.LFE2191:
	.size	_Z9rand_fillPhm, .-_Z9rand_fillPhm
	.section	.rodata
	.align 4
	.type	_ZL11warmup_size, @object
	.size	_ZL11warmup_size, 4
_ZL11warmup_size:
	.long	104857600
	.text
	.globl	_Z15int8_index_copyPhS_m
	.type	_Z15int8_index_copyPhS_m, @function
_Z15int8_index_copyPhS_m:
.LFB2192:
	.cfi_startproc
	pushq	%rbp
	.cfi_def_cfa_offset 16
	.cfi_offset 6, -16
	movq	%rsp, %rbp
	.cfi_def_cfa_register 6
	movq	%rdi, -24(%rbp)
	movq	%rsi, -32(%rbp)
	movq	%rdx, -40(%rbp)
	movq	$0, -8(%rbp)
.L12:
	movq	-8(%rbp), %rax
	cmpq	-40(%rbp), %rax
	jnb	.L13
	movq	-24(%rbp), %rdx
	movq	-8(%rbp), %rax
	addq	%rdx, %rax
	movq	-32(%rbp), %rcx
	movq	-8(%rbp), %rdx
	addq	%rcx, %rdx
	movzbl	(%rax), %eax
	movb	%al, (%rdx)
	incq	-8(%rbp)
	jmp	.L12
.L13:
	nop
	popq	%rbp
	.cfi_def_cfa 7, 8
	ret
	.cfi_endproc
.LFE2192:
	.size	_Z15int8_index_copyPhS_m, .-_Z15int8_index_copyPhS_m
	.globl	_Z12int8_pt_copyPhS_m
	.type	_Z12int8_pt_copyPhS_m, @function
_Z12int8_pt_copyPhS_m:
.LFB2193:
	.cfi_startproc
	pushq	%rbp
	.cfi_def_cfa_offset 16
	.cfi_offset 6, -16
	movq	%rsp, %rbp
	.cfi_def_cfa_register 6
	movq	%rdi, -24(%rbp)
	movq	%rsi, -32(%rbp)
	movq	%rdx, -40(%rbp)
	movq	$0, -8(%rbp)
.L16:
	movq	-8(%rbp), %rax
	cmpq	-40(%rbp), %rax
	jnb	.L17
	movq	-24(%rbp), %rax
	movzbl	(%rax), %eax
	movq	-32(%rbp), %rdx
	movb	%al, (%rdx)
	incq	-32(%rbp)
	incq	-24(%rbp)
	incq	-8(%rbp)
	jmp	.L16
.L17:
	nop
	popq	%rbp
	.cfi_def_cfa 7, 8
	ret
	.cfi_endproc
.LFE2193:
	.size	_Z12int8_pt_copyPhS_m, .-_Z12int8_pt_copyPhS_m
	.globl	_Z16int64_index_copyPhS_m
	.type	_Z16int64_index_copyPhS_m, @function
_Z16int64_index_copyPhS_m:
.LFB2194:
	.cfi_startproc
	pushq	%rbp
	.cfi_def_cfa_offset 16
	.cfi_offset 6, -16
	movq	%rsp, %rbp
	.cfi_def_cfa_register 6
	movq	%rdi, -40(%rbp)
	movq	%rsi, -48(%rbp)
	movq	%rdx, -56(%rbp)
	movq	-48(%rbp), %rax
	movq	%rax, -16(%rbp)
	movq	-40(%rbp), %rax
	movq	%rax, -24(%rbp)
	movq	-56(%rbp), %rax
	shrq	$3, %rax
	movq	%rax, -32(%rbp)
	movq	$0, -8(%rbp)
.L20:
	movq	-8(%rbp), %rax
	cmpq	-32(%rbp), %rax
	jnb	.L21
	movq	-8(%rbp), %rax
	leaq	0(,%rax,8), %rdx
	movq	-24(%rbp), %rax
	addq	%rax, %rdx
	movq	-8(%rbp), %rax
	leaq	0(,%rax,8), %rcx
	movq	-16(%rbp), %rax
	addq	%rcx, %rax
	movq	(%rdx), %rdx
	movq	%rdx, (%rax)
	incq	-8(%rbp)
	jmp	.L20
.L21:
	nop
	popq	%rbp
	.cfi_def_cfa 7, 8
	ret
	.cfi_endproc
.LFE2194:
	.size	_Z16int64_index_copyPhS_m, .-_Z16int64_index_copyPhS_m
	.globl	_Z13int64_pt_copyPhS_m
	.type	_Z13int64_pt_copyPhS_m, @function
_Z13int64_pt_copyPhS_m:
.LFB2195:
	.cfi_startproc
	pushq	%rbp
	.cfi_def_cfa_offset 16
	.cfi_offset 6, -16
	movq	%rsp, %rbp
	.cfi_def_cfa_register 6
	movq	%rdi, -40(%rbp)
	movq	%rsi, -48(%rbp)
	movq	%rdx, -56(%rbp)
	movq	-48(%rbp), %rax
	movq	%rax, -8(%rbp)
	movq	-40(%rbp), %rax
	movq	%rax, -16(%rbp)
	movq	-56(%rbp), %rax
	shrq	$3, %rax
	movq	%rax, -32(%rbp)
	movq	$0, -24(%rbp)
.L24:
	movq	-24(%rbp), %rax
	cmpq	-32(%rbp), %rax
	jnb	.L25
	movq	-16(%rbp), %rax
	movq	(%rax), %rdx
	movq	-8(%rbp), %rax
	movq	%rdx, (%rax)
	addq	$8, -8(%rbp)
	addq	$8, -16(%rbp)
	incq	-24(%rbp)
	jmp	.L24
.L25:
	nop
	popq	%rbp
	.cfi_def_cfa 7, 8
	ret
	.cfi_endproc
.LFE2195:
	.size	_Z13int64_pt_copyPhS_m, .-_Z13int64_pt_copyPhS_m
	.globl	_Z11unroll_copyPhS_m
	.type	_Z11unroll_copyPhS_m, @function
_Z11unroll_copyPhS_m:
.LFB2196:
	.cfi_startproc
	pushq	%rbp
	.cfi_def_cfa_offset 16
	.cfi_offset 6, -16
	movq	%rsp, %rbp
	.cfi_def_cfa_register 6
	movq	%rdi, -56(%rbp)
	movq	%rsi, -64(%rbp)
	movq	%rdx, -72(%rbp)
	movq	-64(%rbp), %rax
	movq	%rax, -8(%rbp)
	movq	-56(%rbp), %rax
	movq	%rax, -16(%rbp)
	movq	-72(%rbp), %rax
	shrq	$3, %rax
	movq	%rax, -32(%rbp)
	movq	$16, -40(%rbp)
	movq	$0, -24(%rbp)
.L28:
	movq	-32(%rbp), %rax
	shrq	$4, %rax
	cmpq	%rax, -24(%rbp)
	jnb	.L29
	movq	-16(%rbp), %rax
	movq	(%rax), %rdx
	movq	-8(%rbp), %rax
	movq	%rdx, (%rax)
	movq	-8(%rbp), %rax
	addq	$8, %rax
	movq	-16(%rbp), %rdx
	movq	8(%rdx), %rdx
	movq	%rdx, (%rax)
	movq	-8(%rbp), %rax
	addq	$16, %rax
	movq	-16(%rbp), %rdx
	movq	16(%rdx), %rdx
	movq	%rdx, (%rax)
	movq	-8(%rbp), %rax
	addq	$24, %rax
	movq	-16(%rbp), %rdx
	movq	24(%rdx), %rdx
	movq	%rdx, (%rax)
	movq	-8(%rbp), %rax
	addq	$32, %rax
	movq	-16(%rbp), %rdx
	movq	32(%rdx), %rdx
	movq	%rdx, (%rax)
	movq	-8(%rbp), %rax
	addq	$40, %rax
	movq	-16(%rbp), %rdx
	movq	40(%rdx), %rdx
	movq	%rdx, (%rax)
	movq	-8(%rbp), %rax
	addq	$48, %rax
	movq	-16(%rbp), %rdx
	movq	48(%rdx), %rdx
	movq	%rdx, (%rax)
	movq	-8(%rbp), %rax
	addq	$56, %rax
	movq	-16(%rbp), %rdx
	movq	56(%rdx), %rdx
	movq	%rdx, (%rax)
	movq	-8(%rbp), %rax
	addq	$64, %rax
	movq	-16(%rbp), %rdx
	movq	64(%rdx), %rdx
	movq	%rdx, (%rax)
	movq	-8(%rbp), %rax
	addq	$72, %rax
	movq	-16(%rbp), %rdx
	movq	72(%rdx), %rdx
	movq	%rdx, (%rax)
	movq	-8(%rbp), %rax
	addq	$80, %rax
	movq	-16(%rbp), %rdx
	movq	80(%rdx), %rdx
	movq	%rdx, (%rax)
	movq	-8(%rbp), %rax
	addq	$88, %rax
	movq	-16(%rbp), %rdx
	movq	88(%rdx), %rdx
	movq	%rdx, (%rax)
	movq	-8(%rbp), %rax
	addq	$96, %rax
	movq	-16(%rbp), %rdx
	movq	96(%rdx), %rdx
	movq	%rdx, (%rax)
	movq	-8(%rbp), %rax
	addq	$104, %rax
	movq	-16(%rbp), %rdx
	movq	104(%rdx), %rdx
	movq	%rdx, (%rax)
	movq	-8(%rbp), %rax
	addq	$112, %rax
	movq	-16(%rbp), %rdx
	movq	112(%rdx), %rdx
	movq	%rdx, (%rax)
	movq	-8(%rbp), %rax
	addq	$120, %rax
	movq	-16(%rbp), %rdx
	movq	120(%rdx), %rdx
	movq	%rdx, (%rax)
	subq	$-128, -8(%rbp)
	subq	$-128, -16(%rbp)
	incq	-24(%rbp)
	jmp	.L28
.L29:
	nop
	popq	%rbp
	.cfi_def_cfa 7, 8
	ret
	.cfi_endproc
.LFE2196:
	.size	_Z11unroll_copyPhS_m, .-_Z11unroll_copyPhS_m
	.globl	_Z16para_unroll_copyPhS_m
	.type	_Z16para_unroll_copyPhS_m, @function
_Z16para_unroll_copyPhS_m:
.LFB2197:
	.cfi_startproc
	pushq	%rbp
	.cfi_def_cfa_offset 16
	.cfi_offset 6, -16
	movq	%rsp, %rbp
	.cfi_def_cfa_register 6
	subq	$80, %rsp
	movq	%rdi, -56(%rbp)
	movq	%rsi, -64(%rbp)
	movq	%rdx, -72(%rbp)
	movq	-72(%rbp), %rax
	shrq	$3, %rax
	movq	%rax, -8(%rbp)
	movq	$16, -16(%rbp)
	movq	-8(%rbp), %rax
	movq	%rax, -32(%rbp)
	movq	-64(%rbp), %rax
	movq	%rax, -40(%rbp)
	movq	-56(%rbp), %rax
	movq	%rax, -48(%rbp)
	leaq	-48(%rbp), %rax
	movl	$0, %ecx
	movl	$4, %edx
	movq	%rax, %rsi
	leaq	_Z16para_unroll_copyPhS_m._omp_fn.0(%rip), %rdi
	call	GOMP_parallel@PLT
	nop
	leave
	.cfi_def_cfa 7, 8
	ret
	.cfi_endproc
.LFE2197:
	.size	_Z16para_unroll_copyPhS_m, .-_Z16para_unroll_copyPhS_m
	.globl	_Z15para_int64_copyPhS_m
	.type	_Z15para_int64_copyPhS_m, @function
_Z15para_int64_copyPhS_m:
.LFB2198:
	.cfi_startproc
	pushq	%rbp
	.cfi_def_cfa_offset 16
	.cfi_offset 6, -16
	movq	%rsp, %rbp
	.cfi_def_cfa_register 6
	subq	$80, %rsp
	movq	%rdi, -56(%rbp)
	movq	%rsi, -64(%rbp)
	movq	%rdx, -72(%rbp)
	movq	-64(%rbp), %rax
	movq	%rax, -8(%rbp)
	movq	-56(%rbp), %rax
	movq	%rax, -16(%rbp)
	movq	-72(%rbp), %rax
	shrq	$3, %rax
	movq	%rax, -24(%rbp)
	movq	-24(%rbp), %rax
	movq	%rax, -32(%rbp)
	movq	-16(%rbp), %rax
	movq	%rax, -40(%rbp)
	movq	-8(%rbp), %rax
	movq	%rax, -48(%rbp)
	leaq	-48(%rbp), %rax
	movl	$0, %ecx
	movl	$4, %edx
	movq	%rax, %rsi
	leaq	_Z15para_int64_copyPhS_m._omp_fn.0(%rip), %rdi
	call	GOMP_parallel@PLT
	nop
	leave
	.cfi_def_cfa 7, 8
	ret
	.cfi_endproc
.LFE2198:
	.size	_Z15para_int64_copyPhS_m, .-_Z15para_int64_copyPhS_m
	.globl	_Z14para_int8_copyPhS_m
	.type	_Z14para_int8_copyPhS_m, @function
_Z14para_int8_copyPhS_m:
.LFB2199:
	.cfi_startproc
	pushq	%rbp
	.cfi_def_cfa_offset 16
	.cfi_offset 6, -16
	movq	%rsp, %rbp
	.cfi_def_cfa_register 6
	subq	$64, %rsp
	movq	%rdi, -40(%rbp)
	movq	%rsi, -48(%rbp)
	movq	%rdx, -56(%rbp)
	movq	-56(%rbp), %rax
	movq	%rax, -16(%rbp)
	movq	-48(%rbp), %rax
	movq	%rax, -24(%rbp)
	movq	-40(%rbp), %rax
	movq	%rax, -32(%rbp)
	leaq	-32(%rbp), %rax
	movl	$0, %ecx
	movl	$28, %edx
	movq	%rax, %rsi
	leaq	_Z14para_int8_copyPhS_m._omp_fn.0(%rip), %rdi
	call	GOMP_parallel@PLT
	nop
	leave
	.cfi_def_cfa 7, 8
	ret
	.cfi_endproc
.LFE2199:
	.size	_Z14para_int8_copyPhS_m, .-_Z14para_int8_copyPhS_m
	.section	.text._ZNKSt6chrono8durationIlSt5ratioILl1ELl1000000EEE5countEv,"axG",@progbits,_ZNKSt6chrono8durationIlSt5ratioILl1ELl1000000EEE5countEv,comdat
	.align 2
	.weak	_ZNKSt6chrono8durationIlSt5ratioILl1ELl1000000EEE5countEv
	.type	_ZNKSt6chrono8durationIlSt5ratioILl1ELl1000000EEE5countEv, @function
_ZNKSt6chrono8durationIlSt5ratioILl1ELl1000000EEE5countEv:
.LFB2201:
	.cfi_startproc
	pushq	%rbp
	.cfi_def_cfa_offset 16
	.cfi_offset 6, -16
	movq	%rsp, %rbp
	.cfi_def_cfa_register 6
	movq	%rdi, -8(%rbp)
	movq	-8(%rbp), %rax
	movq	(%rax), %rax
	popq	%rbp
	.cfi_def_cfa 7, 8
	ret
	.cfi_endproc
.LFE2201:
	.size	_ZNKSt6chrono8durationIlSt5ratioILl1ELl1000000EEE5countEv, .-_ZNKSt6chrono8durationIlSt5ratioILl1ELl1000000EEE5countEv
	.section	.text._ZNSt6chrono13duration_castINS_8durationIlSt5ratioILl1ELl1000000EEEElS2_ILl1ELl1000000000EEEENSt9enable_ifIXsrNS_13__is_durationIT_EE5valueES8_E4typeERKNS1_IT0_T1_EE,"axG",@progbits,_ZNSt6chrono13duration_castINS_8durationIlSt5ratioILl1ELl1000000EEEElS2_ILl1ELl1000000000EEEENSt9enable_ifIXsrNS_13__is_durationIT_EE5valueES8_E4typeERKNS1_IT0_T1_EE,comdat
	.weak	_ZNSt6chrono13duration_castINS_8durationIlSt5ratioILl1ELl1000000EEEElS2_ILl1ELl1000000000EEEENSt9enable_ifIXsrNS_13__is_durationIT_EE5valueES8_E4typeERKNS1_IT0_T1_EE
	.type	_ZNSt6chrono13duration_castINS_8durationIlSt5ratioILl1ELl1000000EEEElS2_ILl1ELl1000000000EEEENSt9enable_ifIXsrNS_13__is_durationIT_EE5valueES8_E4typeERKNS1_IT0_T1_EE, @function
_ZNSt6chrono13duration_castINS_8durationIlSt5ratioILl1ELl1000000EEEElS2_ILl1ELl1000000000EEEENSt9enable_ifIXsrNS_13__is_durationIT_EE5valueES8_E4typeERKNS1_IT0_T1_EE:
.LFB2202:
	.cfi_startproc
	pushq	%rbp
	.cfi_def_cfa_offset 16
	.cfi_offset 6, -16
	movq	%rsp, %rbp
	.cfi_def_cfa_register 6
	subq	$16, %rsp
	movq	%rdi, -8(%rbp)
	movq	-8(%rbp), %rax
	movq	%rax, %rdi
	call	_ZNSt6chrono20__duration_cast_implINS_8durationIlSt5ratioILl1ELl1000000EEEES2_ILl1ELl1000EElLb1ELb0EE6__castIlS2_ILl1ELl1000000000EEEES4_RKNS1_IT_T0_EE
	leave
	.cfi_def_cfa 7, 8
	ret
	.cfi_endproc
.LFE2202:
	.size	_ZNSt6chrono13duration_castINS_8durationIlSt5ratioILl1ELl1000000EEEElS2_ILl1ELl1000000000EEEENSt9enable_ifIXsrNS_13__is_durationIT_EE5valueES8_E4typeERKNS1_IT0_T1_EE, .-_ZNSt6chrono13duration_castINS_8durationIlSt5ratioILl1ELl1000000EEEElS2_ILl1ELl1000000000EEEENSt9enable_ifIXsrNS_13__is_durationIT_EE5valueES8_E4typeERKNS1_IT0_T1_EE
	.section	.text._ZNSt6chronomiINS_3_V212system_clockENS_8durationIlSt5ratioILl1ELl1000000000EEEES6_EENSt11common_typeIJT0_T1_EE4typeERKNS_10time_pointIT_S8_EERKNSC_ISD_S9_EE,"axG",@progbits,_ZNSt6chronomiINS_3_V212system_clockENS_8durationIlSt5ratioILl1ELl1000000000EEEES6_EENSt11common_typeIJT0_T1_EE4typeERKNS_10time_pointIT_S8_EERKNSC_ISD_S9_EE,comdat
	.weak	_ZNSt6chronomiINS_3_V212system_clockENS_8durationIlSt5ratioILl1ELl1000000000EEEES6_EENSt11common_typeIJT0_T1_EE4typeERKNS_10time_pointIT_S8_EERKNSC_ISD_S9_EE
	.type	_ZNSt6chronomiINS_3_V212system_clockENS_8durationIlSt5ratioILl1ELl1000000000EEEES6_EENSt11common_typeIJT0_T1_EE4typeERKNS_10time_pointIT_S8_EERKNSC_ISD_S9_EE, @function
_ZNSt6chronomiINS_3_V212system_clockENS_8durationIlSt5ratioILl1ELl1000000000EEEES6_EENSt11common_typeIJT0_T1_EE4typeERKNS_10time_pointIT_S8_EERKNSC_ISD_S9_EE:
.LFB2203:
	.cfi_startproc
	pushq	%rbp
	.cfi_def_cfa_offset 16
	.cfi_offset 6, -16
	movq	%rsp, %rbp
	.cfi_def_cfa_register 6
	subq	$32, %rsp
	movq	%rdi, -24(%rbp)
	movq	%rsi, -32(%rbp)
	movq	-32(%rbp), %rax
	movq	%rax, %rdi
	call	_ZNKSt6chrono10time_pointINS_3_V212system_clockENS_8durationIlSt5ratioILl1ELl1000000000EEEEE16time_since_epochEv
	movq	%rax, -16(%rbp)
	movq	-24(%rbp), %rax
	movq	%rax, %rdi
	call	_ZNKSt6chrono10time_pointINS_3_V212system_clockENS_8durationIlSt5ratioILl1ELl1000000000EEEEE16time_since_epochEv
	movq	%rax, -8(%rbp)
	leaq	-16(%rbp), %rdx
	leaq	-8(%rbp), %rax
	movq	%rdx, %rsi
	movq	%rax, %rdi
	call	_ZNSt6chronomiIlSt5ratioILl1ELl1000000000EElS2_EENSt11common_typeIJNS_8durationIT_T0_EENS4_IT1_T2_EEEE4typeERKS7_RKSA_
	leave
	.cfi_def_cfa 7, 8
	ret
	.cfi_endproc
.LFE2203:
	.size	_ZNSt6chronomiINS_3_V212system_clockENS_8durationIlSt5ratioILl1ELl1000000000EEEES6_EENSt11common_typeIJT0_T1_EE4typeERKNS_10time_pointIT_S8_EERKNSC_ISD_S9_EE, .-_ZNSt6chronomiINS_3_V212system_clockENS_8durationIlSt5ratioILl1ELl1000000000EEEES6_EENSt11common_typeIJT0_T1_EE4typeERKNS_10time_pointIT_S8_EERKNSC_ISD_S9_EE
	.section	.text._ZNSt6chronomiIlSt5ratioILl1ELl1000000000EElS2_EENSt11common_typeIJNS_8durationIT_T0_EENS4_IT1_T2_EEEE4typeERKS7_RKSA_,"axG",@progbits,_ZNSt6chronomiIlSt5ratioILl1ELl1000000000EElS2_EENSt11common_typeIJNS_8durationIT_T0_EENS4_IT1_T2_EEEE4typeERKS7_RKSA_,comdat
	.weak	_ZNSt6chronomiIlSt5ratioILl1ELl1000000000EElS2_EENSt11common_typeIJNS_8durationIT_T0_EENS4_IT1_T2_EEEE4typeERKS7_RKSA_
	.type	_ZNSt6chronomiIlSt5ratioILl1ELl1000000000EElS2_EENSt11common_typeIJNS_8durationIT_T0_EENS4_IT1_T2_EEEE4typeERKS7_RKSA_, @function
_ZNSt6chronomiIlSt5ratioILl1ELl1000000000EElS2_EENSt11common_typeIJNS_8durationIT_T0_EENS4_IT1_T2_EEEE4typeERKS7_RKSA_:
.LFB2204:
	.cfi_startproc
	pushq	%rbp
	.cfi_def_cfa_offset 16
	.cfi_offset 6, -16
	movq	%rsp, %rbp
	.cfi_def_cfa_register 6
	pushq	%rbx
	subq	$56, %rsp
	.cfi_offset 3, -24
	movq	%rdi, -56(%rbp)
	movq	%rsi, -64(%rbp)
	movq	-56(%rbp), %rax
	movq	(%rax), %rax
	movq	%rax, -32(%rbp)
	leaq	-32(%rbp), %rax
	movq	%rax, %rdi
	call	_ZNKSt6chrono8durationIlSt5ratioILl1ELl1000000000EEE5countEv
	movq	%rax, %rbx
	movq	-64(%rbp), %rax
	movq	(%rax), %rax
	movq	%rax, -24(%rbp)
	leaq	-24(%rbp), %rax
	movq	%rax, %rdi
	call	_ZNKSt6chrono8durationIlSt5ratioILl1ELl1000000000EEE5countEv
	movq	%rax, %rdx
	movq	%rbx, %rax
	subq	%rdx, %rax
	movq	%rax, -40(%rbp)
	leaq	-40(%rbp), %rdx
	leaq	-48(%rbp), %rax
	movq	%rdx, %rsi
	movq	%rax, %rdi
	call	_ZNSt6chrono8durationIlSt5ratioILl1ELl1000000000EEEC1IlvEERKT_
	movq	-48(%rbp), %rax
	movq	-8(%rbp), %rbx
	leave
	.cfi_def_cfa 7, 8
	ret
	.cfi_endproc
.LFE2204:
	.size	_ZNSt6chronomiIlSt5ratioILl1ELl1000000000EElS2_EENSt11common_typeIJNS_8durationIT_T0_EENS4_IT1_T2_EEEE4typeERKS7_RKSA_, .-_ZNSt6chronomiIlSt5ratioILl1ELl1000000000EElS2_EENSt11common_typeIJNS_8durationIT_T0_EENS4_IT1_T2_EEEE4typeERKS7_RKSA_
	.section	.text._ZNKSt6chrono10time_pointINS_3_V212system_clockENS_8durationIlSt5ratioILl1ELl1000000000EEEEE16time_since_epochEv,"axG",@progbits,_ZNKSt6chrono10time_pointINS_3_V212system_clockENS_8durationIlSt5ratioILl1ELl1000000000EEEEE16time_since_epochEv,comdat
	.align 2
	.weak	_ZNKSt6chrono10time_pointINS_3_V212system_clockENS_8durationIlSt5ratioILl1ELl1000000000EEEEE16time_since_epochEv
	.type	_ZNKSt6chrono10time_pointINS_3_V212system_clockENS_8durationIlSt5ratioILl1ELl1000000000EEEEE16time_since_epochEv, @function
_ZNKSt6chrono10time_pointINS_3_V212system_clockENS_8durationIlSt5ratioILl1ELl1000000000EEEEE16time_since_epochEv:
.LFB2205:
	.cfi_startproc
	pushq	%rbp
	.cfi_def_cfa_offset 16
	.cfi_offset 6, -16
	movq	%rsp, %rbp
	.cfi_def_cfa_register 6
	movq	%rdi, -8(%rbp)
	movq	-8(%rbp), %rax
	movq	(%rax), %rax
	popq	%rbp
	.cfi_def_cfa 7, 8
	ret
	.cfi_endproc
.LFE2205:
	.size	_ZNKSt6chrono10time_pointINS_3_V212system_clockENS_8durationIlSt5ratioILl1ELl1000000000EEEEE16time_since_epochEv, .-_ZNKSt6chrono10time_pointINS_3_V212system_clockENS_8durationIlSt5ratioILl1ELl1000000000EEEEE16time_since_epochEv
	.section	.rodata
.LC0:
	.string	"---- Arr size in MB: "
.LC1:
	.string	"  Rand filling... "
.LC2:
	.string	"  Rand filling2... "
.LC3:
	.string	"  Warming up..."
.LC4:
	.string	"  Go go go!"
	.align 8
.LC5:
	.string	"double shared_mem_test(uint64_t, uint8_t*, uint8_t*, uint8_t*, uint8_t*)"
.LC6:
	.string	"mem.cpp"
	.align 8
.LC7:
	.string	"dst[test_loc] == src[test_loc]"
.LC9:
	.string	"---- Time: "
.LC10:
	.string	" us  Rate: "
.LC11:
	.string	" MB/s"
	.text
	.globl	_Z15shared_mem_testmPhS_S_S_
	.type	_Z15shared_mem_testmPhS_S_S_, @function
_Z15shared_mem_testmPhS_S_S_:
.LFB2200:
	.cfi_startproc
	pushq	%rbp
	.cfi_def_cfa_offset 16
	.cfi_offset 6, -16
	movq	%rsp, %rbp
	.cfi_def_cfa_register 6
	addq	$-128, %rsp
	movq	%rdi, -88(%rbp)
	movq	%rsi, -96(%rbp)
	movq	%rdx, -104(%rbp)
	movq	%rcx, -112(%rbp)
	movq	%r8, -120(%rbp)
	movq	-88(%rbp), %rax
	salq	$20, %rax
	movq	%rax, -16(%rbp)
	leaq	.LC0(%rip), %rsi
	leaq	_ZSt4cout(%rip), %rdi
	call	_ZStlsISt11char_traitsIcEERSt13basic_ostreamIcT_ES5_PKc@PLT
	movq	%rax, %rdx
	movq	-88(%rbp), %rax
	movq	%rax, %rsi
	movq	%rdx, %rdi
	call	_ZNSolsEm@PLT
	movq	%rax, %rdx
	movq	_ZSt4endlIcSt11char_traitsIcEERSt13basic_ostreamIT_T0_ES6_@GOTPCREL(%rip), %rax
	movq	%rax, %rsi
	movq	%rdx, %rdi
	call	_ZNSolsEPFRSoS_E@PLT
	leaq	.LC1(%rip), %rsi
	leaq	_ZSt4cout(%rip), %rdi
	call	_ZStlsISt11char_traitsIcEERSt13basic_ostreamIcT_ES5_PKc@PLT
	movq	%rax, %rdx
	movq	-16(%rbp), %rax
	movq	%rax, %rsi
	movq	%rdx, %rdi
	call	_ZNSolsEm@PLT
	movq	%rax, %rdx
	movq	_ZSt4endlIcSt11char_traitsIcEERSt13basic_ostreamIT_T0_ES6_@GOTPCREL(%rip), %rax
	movq	%rax, %rsi
	movq	%rdx, %rdi
	call	_ZNSolsEPFRSoS_E@PLT
	movq	-112(%rbp), %rax
	movl	$104857600, %esi
	movq	%rax, %rdi
	call	_Z9rand_fillPhm
	leaq	.LC2(%rip), %rsi
	leaq	_ZSt4cout(%rip), %rdi
	call	_ZStlsISt11char_traitsIcEERSt13basic_ostreamIcT_ES5_PKc@PLT
	movq	%rax, %rdx
	movq	-16(%rbp), %rax
	movq	%rax, %rsi
	movq	%rdx, %rdi
	call	_ZNSolsEm@PLT
	movq	%rax, %rdx
	movq	_ZSt4endlIcSt11char_traitsIcEERSt13basic_ostreamIT_T0_ES6_@GOTPCREL(%rip), %rax
	movq	%rax, %rsi
	movq	%rdx, %rdi
	call	_ZNSolsEPFRSoS_E@PLT
	movq	-16(%rbp), %rdx
	movq	-96(%rbp), %rax
	movq	%rdx, %rsi
	movq	%rax, %rdi
	call	_Z9rand_fillPhm
	leaq	.LC3(%rip), %rsi
	leaq	_ZSt4cout(%rip), %rdi
	call	_ZStlsISt11char_traitsIcEERSt13basic_ostreamIcT_ES5_PKc@PLT
	movq	%rax, %rdx
	movq	_ZSt4endlIcSt11char_traitsIcEERSt13basic_ostreamIT_T0_ES6_@GOTPCREL(%rip), %rax
	movq	%rax, %rsi
	movq	%rdx, %rdi
	call	_ZNSolsEPFRSoS_E@PLT
	movq	-112(%rbp), %rcx
	movq	-120(%rbp), %rax
	movl	$104857600, %edx
	movq	%rcx, %rsi
	movq	%rax, %rdi
	call	memcpy@PLT
	leaq	.LC4(%rip), %rsi
	leaq	_ZSt4cout(%rip), %rdi
	call	_ZStlsISt11char_traitsIcEERSt13basic_ostreamIcT_ES5_PKc@PLT
	movq	%rax, %rdx
	movq	_ZSt4endlIcSt11char_traitsIcEERSt13basic_ostreamIT_T0_ES6_@GOTPCREL(%rip), %rax
	movq	%rax, %rsi
	movq	%rdx, %rdi
	call	_ZNSolsEPFRSoS_E@PLT
	call	_ZNSt6chrono3_V212system_clock3nowEv@PLT
	movq	%rax, -64(%rbp)
	movq	-16(%rbp), %rdx
	movq	-104(%rbp), %rcx
	movq	-96(%rbp), %rax
	movq	%rcx, %rsi
	movq	%rax, %rdi
	call	_Z15int8_index_copyPhS_m
	call	_ZNSt6chrono3_V212system_clock3nowEv@PLT
	movq	%rax, -72(%rbp)
	movl	$0, -4(%rbp)
.L46:
	cmpl	$99, -4(%rbp)
	jg	.L44
	call	rand@PLT
	cltq
	movl	$0, %edx
	divq	-16(%rbp)
	movq	%rdx, -24(%rbp)
	movq	-104(%rbp), %rdx
	movq	-24(%rbp), %rax
	addq	%rdx, %rax
	movzbl	(%rax), %edx
	movq	-96(%rbp), %rcx
	movq	-24(%rbp), %rax
	addq	%rcx, %rax
	movzbl	(%rax), %eax
	cmpb	%al, %dl
	je	.L45
	leaq	.LC5(%rip), %rcx
	movl	$166, %edx
	leaq	.LC6(%rip), %rsi
	leaq	.LC7(%rip), %rdi
	call	__assert_fail@PLT
.L45:
	incl	-4(%rbp)
	jmp	.L46
.L44:
	leaq	-64(%rbp), %rdx
	leaq	-72(%rbp), %rax
	movq	%rdx, %rsi
	movq	%rax, %rdi
	call	_ZNSt6chronomiINS_3_V212system_clockENS_8durationIlSt5ratioILl1ELl1000000000EEEES6_EENSt11common_typeIJT0_T1_EE4typeERKNS_10time_pointIT_S8_EERKNSC_ISD_S9_EE
	movq	%rax, -48(%rbp)
	leaq	-48(%rbp), %rax
	movq	%rax, %rdi
	call	_ZNSt6chrono13duration_castINS_8durationIlSt5ratioILl1ELl1000000EEEElS2_ILl1ELl1000000000EEEENSt9enable_ifIXsrNS_13__is_durationIT_EE5valueES8_E4typeERKNS1_IT0_T1_EE
	movq	%rax, -56(%rbp)
	leaq	-56(%rbp), %rax
	movq	%rax, %rdi
	call	_ZNKSt6chrono8durationIlSt5ratioILl1ELl1000000EEE5countEv
	movq	%rax, -32(%rbp)
	movq	-88(%rbp), %rax
	testq	%rax, %rax
	js	.L47
	vcvtsi2sdq	%rax, %xmm0, %xmm0
	jmp	.L48
.L47:
	movq	%rax, %rdx
	shrq	%rdx
	andl	$1, %eax
	orq	%rax, %rdx
	vcvtsi2sdq	%rdx, %xmm0, %xmm0
	vaddsd	%xmm0, %xmm0, %xmm0
.L48:
	vcvtsi2sdq	-32(%rbp), %xmm1, %xmm1
	vdivsd	%xmm1, %xmm0, %xmm1
	vmovsd	.LC8(%rip), %xmm0
	vmulsd	%xmm0, %xmm1, %xmm1
	vmovsd	.LC8(%rip), %xmm0
	vmulsd	%xmm0, %xmm1, %xmm0
	vmovsd	%xmm0, -40(%rbp)
	leaq	.LC9(%rip), %rsi
	leaq	_ZSt4cout(%rip), %rdi
	call	_ZStlsISt11char_traitsIcEERSt13basic_ostreamIcT_ES5_PKc@PLT
	movq	%rax, %rdx
	movq	-32(%rbp), %rax
	movq	%rax, %rsi
	movq	%rdx, %rdi
	call	_ZNSolsEl@PLT
	leaq	.LC10(%rip), %rsi
	movq	%rax, %rdi
	call	_ZStlsISt11char_traitsIcEERSt13basic_ostreamIcT_ES5_PKc@PLT
	movq	%rax, %rdx
	movq	-40(%rbp), %rax
	vmovq	%rax, %xmm0
	movq	%rdx, %rdi
	call	_ZNSolsEd@PLT
	leaq	.LC11(%rip), %rsi
	movq	%rax, %rdi
	call	_ZStlsISt11char_traitsIcEERSt13basic_ostreamIcT_ES5_PKc@PLT
	movq	%rax, %rdx
	movq	_ZSt4endlIcSt11char_traitsIcEERSt13basic_ostreamIT_T0_ES6_@GOTPCREL(%rip), %rax
	movq	%rax, %rsi
	movq	%rdx, %rdi
	call	_ZNSolsEPFRSoS_E@PLT
	vmovsd	-40(%rbp), %xmm0
	vmovq	%xmm0, %rax
	vmovq	%rax, %xmm0
	leave
	.cfi_def_cfa 7, 8
	ret
	.cfi_endproc
.LFE2200:
	.size	_Z15shared_mem_testmPhS_S_S_, .-_Z15shared_mem_testmPhS_S_S_
	.section	.text._ZNSt12_Vector_baseImSaImEE12_Vector_implD2Ev,"axG",@progbits,_ZNSt12_Vector_baseImSaImEE12_Vector_implD5Ev,comdat
	.align 2
	.weak	_ZNSt12_Vector_baseImSaImEE12_Vector_implD2Ev
	.type	_ZNSt12_Vector_baseImSaImEE12_Vector_implD2Ev, @function
_ZNSt12_Vector_baseImSaImEE12_Vector_implD2Ev:
.LFB2211:
	.cfi_startproc
	pushq	%rbp
	.cfi_def_cfa_offset 16
	.cfi_offset 6, -16
	movq	%rsp, %rbp
	.cfi_def_cfa_register 6
	subq	$16, %rsp
	movq	%rdi, -8(%rbp)
	movq	-8(%rbp), %rax
	movq	%rax, %rdi
	call	_ZNSaImED2Ev
	nop
	leave
	.cfi_def_cfa 7, 8
	ret
	.cfi_endproc
.LFE2211:
	.size	_ZNSt12_Vector_baseImSaImEE12_Vector_implD2Ev, .-_ZNSt12_Vector_baseImSaImEE12_Vector_implD2Ev
	.weak	_ZNSt12_Vector_baseImSaImEE12_Vector_implD1Ev
	.set	_ZNSt12_Vector_baseImSaImEE12_Vector_implD1Ev,_ZNSt12_Vector_baseImSaImEE12_Vector_implD2Ev
	.section	.text._ZNSt12_Vector_baseImSaImEEC2Ev,"axG",@progbits,_ZNSt12_Vector_baseImSaImEEC5Ev,comdat
	.align 2
	.weak	_ZNSt12_Vector_baseImSaImEEC2Ev
	.type	_ZNSt12_Vector_baseImSaImEEC2Ev, @function
_ZNSt12_Vector_baseImSaImEEC2Ev:
.LFB2213:
	.cfi_startproc
	pushq	%rbp
	.cfi_def_cfa_offset 16
	.cfi_offset 6, -16
	movq	%rsp, %rbp
	.cfi_def_cfa_register 6
	subq	$16, %rsp
	movq	%rdi, -8(%rbp)
	movq	-8(%rbp), %rax
	movq	%rax, %rdi
	call	_ZNSt12_Vector_baseImSaImEE12_Vector_implC1Ev
	nop
	leave
	.cfi_def_cfa 7, 8
	ret
	.cfi_endproc
.LFE2213:
	.size	_ZNSt12_Vector_baseImSaImEEC2Ev, .-_ZNSt12_Vector_baseImSaImEEC2Ev
	.weak	_ZNSt12_Vector_baseImSaImEEC1Ev
	.set	_ZNSt12_Vector_baseImSaImEEC1Ev,_ZNSt12_Vector_baseImSaImEEC2Ev
	.section	.text._ZNSt6vectorImSaImEEC2Ev,"axG",@progbits,_ZNSt6vectorImSaImEEC5Ev,comdat
	.align 2
	.weak	_ZNSt6vectorImSaImEEC2Ev
	.type	_ZNSt6vectorImSaImEEC2Ev, @function
_ZNSt6vectorImSaImEEC2Ev:
.LFB2215:
	.cfi_startproc
	pushq	%rbp
	.cfi_def_cfa_offset 16
	.cfi_offset 6, -16
	movq	%rsp, %rbp
	.cfi_def_cfa_register 6
	subq	$16, %rsp
	movq	%rdi, -8(%rbp)
	movq	-8(%rbp), %rax
	movq	%rax, %rdi
	call	_ZNSt12_Vector_baseImSaImEEC2Ev
	nop
	leave
	.cfi_def_cfa 7, 8
	ret
	.cfi_endproc
.LFE2215:
	.size	_ZNSt6vectorImSaImEEC2Ev, .-_ZNSt6vectorImSaImEEC2Ev
	.weak	_ZNSt6vectorImSaImEEC1Ev
	.set	_ZNSt6vectorImSaImEEC1Ev,_ZNSt6vectorImSaImEEC2Ev
	.section	.text._ZNSt12_Vector_baseIdSaIdEE12_Vector_implD2Ev,"axG",@progbits,_ZNSt12_Vector_baseIdSaIdEE12_Vector_implD5Ev,comdat
	.align 2
	.weak	_ZNSt12_Vector_baseIdSaIdEE12_Vector_implD2Ev
	.type	_ZNSt12_Vector_baseIdSaIdEE12_Vector_implD2Ev, @function
_ZNSt12_Vector_baseIdSaIdEE12_Vector_implD2Ev:
.LFB2221:
	.cfi_startproc
	pushq	%rbp
	.cfi_def_cfa_offset 16
	.cfi_offset 6, -16
	movq	%rsp, %rbp
	.cfi_def_cfa_register 6
	subq	$16, %rsp
	movq	%rdi, -8(%rbp)
	movq	-8(%rbp), %rax
	movq	%rax, %rdi
	call	_ZNSaIdED2Ev
	nop
	leave
	.cfi_def_cfa 7, 8
	ret
	.cfi_endproc
.LFE2221:
	.size	_ZNSt12_Vector_baseIdSaIdEE12_Vector_implD2Ev, .-_ZNSt12_Vector_baseIdSaIdEE12_Vector_implD2Ev
	.weak	_ZNSt12_Vector_baseIdSaIdEE12_Vector_implD1Ev
	.set	_ZNSt12_Vector_baseIdSaIdEE12_Vector_implD1Ev,_ZNSt12_Vector_baseIdSaIdEE12_Vector_implD2Ev
	.section	.text._ZNSt12_Vector_baseIdSaIdEEC2Ev,"axG",@progbits,_ZNSt12_Vector_baseIdSaIdEEC5Ev,comdat
	.align 2
	.weak	_ZNSt12_Vector_baseIdSaIdEEC2Ev
	.type	_ZNSt12_Vector_baseIdSaIdEEC2Ev, @function
_ZNSt12_Vector_baseIdSaIdEEC2Ev:
.LFB2223:
	.cfi_startproc
	pushq	%rbp
	.cfi_def_cfa_offset 16
	.cfi_offset 6, -16
	movq	%rsp, %rbp
	.cfi_def_cfa_register 6
	subq	$16, %rsp
	movq	%rdi, -8(%rbp)
	movq	-8(%rbp), %rax
	movq	%rax, %rdi
	call	_ZNSt12_Vector_baseIdSaIdEE12_Vector_implC1Ev
	nop
	leave
	.cfi_def_cfa 7, 8
	ret
	.cfi_endproc
.LFE2223:
	.size	_ZNSt12_Vector_baseIdSaIdEEC2Ev, .-_ZNSt12_Vector_baseIdSaIdEEC2Ev
	.weak	_ZNSt12_Vector_baseIdSaIdEEC1Ev
	.set	_ZNSt12_Vector_baseIdSaIdEEC1Ev,_ZNSt12_Vector_baseIdSaIdEEC2Ev
	.section	.text._ZNSt6vectorIdSaIdEEC2Ev,"axG",@progbits,_ZNSt6vectorIdSaIdEEC5Ev,comdat
	.align 2
	.weak	_ZNSt6vectorIdSaIdEEC2Ev
	.type	_ZNSt6vectorIdSaIdEEC2Ev, @function
_ZNSt6vectorIdSaIdEEC2Ev:
.LFB2225:
	.cfi_startproc
	pushq	%rbp
	.cfi_def_cfa_offset 16
	.cfi_offset 6, -16
	movq	%rsp, %rbp
	.cfi_def_cfa_register 6
	subq	$16, %rsp
	movq	%rdi, -8(%rbp)
	movq	-8(%rbp), %rax
	movq	%rax, %rdi
	call	_ZNSt12_Vector_baseIdSaIdEEC2Ev
	nop
	leave
	.cfi_def_cfa 7, 8
	ret
	.cfi_endproc
.LFE2225:
	.size	_ZNSt6vectorIdSaIdEEC2Ev, .-_ZNSt6vectorIdSaIdEEC2Ev
	.weak	_ZNSt6vectorIdSaIdEEC1Ev
	.set	_ZNSt6vectorIdSaIdEEC1Ev,_ZNSt6vectorIdSaIdEEC2Ev
	.section	.rodata
.LC12:
	.string	"**** Mem Test Result ****"
.LC13:
	.string	"size / MB"
.LC14:
	.string	"\t"
.LC15:
	.string	"rate / MBps"
	.text
	.globl	main
	.type	main, @function
main:
.LFB2206:
	.cfi_startproc
	.cfi_personality 0x9b,DW.ref.__gxx_personality_v0
	.cfi_lsda 0x1b,.LLSDA2206
	pushq	%rbp
	.cfi_def_cfa_offset 16
	.cfi_offset 6, -16
	movq	%rsp, %rbp
	.cfi_def_cfa_register 6
	pushq	%rbx
	subq	$184, %rsp
	.cfi_offset 3, -24
	movl	%edi, -180(%rbp)
	movq	%rsi, -192(%rbp)
	movl	$0, %edi
	call	time@PLT
	movl	%eax, %edi
	call	srand@PLT
	movl	$0, %ecx
	movl	$0, %edx
	movl	$0, %esi
	leaq	main._omp_fn.0(%rip), %rdi
	call	GOMP_parallel@PLT
	leaq	-112(%rbp), %rax
	movq	%rax, %rdi
	call	_ZNSt6vectorImSaImEEC1Ev
	movq	$128, -152(%rbp)
.L58:
	movq	-152(%rbp), %rax
	cmpq	$32768, %rax
	ja	.L57
	leaq	-152(%rbp), %rdx
	leaq	-112(%rbp), %rax
	movq	%rdx, %rsi
	movq	%rax, %rdi
.LEHB0:
	call	_ZNSt6vectorImSaImEE12emplace_backIJRmEEEvDpOT_
	movq	-152(%rbp), %rax
	addq	%rax, %rax
	movq	%rax, -152(%rbp)
	jmp	.L58
.L57:
	movl	$104857600, %edi
	call	_Znam@PLT
	movq	%rax, -32(%rbp)
	movl	$104857600, %edi
	call	_Znam@PLT
	movq	%rax, -40(%rbp)
	leaq	-112(%rbp), %rax
	movq	%rax, %rdi
	call	_ZNSt6vectorImSaImEE4backEv
	movq	(%rax), %rax
	salq	$20, %rax
	movq	%rax, -48(%rbp)
	movq	-48(%rbp), %rax
	movq	%rax, %rdi
	call	_Znam@PLT
	movq	%rax, -56(%rbp)
	movq	-48(%rbp), %rax
	movq	%rax, %rdi
	call	_Znam@PLT
.LEHE0:
	movq	%rax, -64(%rbp)
	leaq	-144(%rbp), %rax
	movq	%rax, %rdi
	call	_ZNSt6vectorIdSaIdEEC1Ev
	leaq	-112(%rbp), %rax
	movq	%rax, -72(%rbp)
	movq	-72(%rbp), %rax
	movq	%rax, %rdi
	call	_ZNSt6vectorImSaImEE5beginEv
	movq	%rax, -160(%rbp)
	movq	-72(%rbp), %rax
	movq	%rax, %rdi
	call	_ZNSt6vectorImSaImEE3endEv
	movq	%rax, -168(%rbp)
.L60:
	leaq	-168(%rbp), %rdx
	leaq	-160(%rbp), %rax
	movq	%rdx, %rsi
	movq	%rax, %rdi
	call	_ZN9__gnu_cxxneIPmSt6vectorImSaImEEEEbRKNS_17__normal_iteratorIT_T0_EESA_
	testb	%al, %al
	je	.L59
	leaq	-160(%rbp), %rax
	movq	%rax, %rdi
	call	_ZNK9__gnu_cxx17__normal_iteratorIPmSt6vectorImSaImEEEdeEv
	movq	(%rax), %rax
	movq	%rax, -80(%rbp)
	movq	-40(%rbp), %rdi
	movq	-32(%rbp), %rcx
	movq	-64(%rbp), %rdx
	movq	-56(%rbp), %rsi
	movq	-80(%rbp), %rax
	movq	%rdi, %r8
	movq	%rax, %rdi
.LEHB1:
	call	_Z15shared_mem_testmPhS_S_S_
	vmovq	%xmm0, %rax
	movq	%rax, -88(%rbp)
	leaq	-88(%rbp), %rdx
	leaq	-144(%rbp), %rax
	movq	%rdx, %rsi
	movq	%rax, %rdi
	call	_ZNSt6vectorIdSaIdEE12emplace_backIJdEEEvDpOT_
	leaq	-160(%rbp), %rax
	movq	%rax, %rdi
	call	_ZN9__gnu_cxx17__normal_iteratorIPmSt6vectorImSaImEEEppEv
	jmp	.L60
.L59:
	leaq	.LC12(%rip), %rsi
	leaq	_ZSt4cout(%rip), %rdi
	call	_ZStlsISt11char_traitsIcEERSt13basic_ostreamIcT_ES5_PKc@PLT
	movq	%rax, %rdx
	movq	_ZSt4endlIcSt11char_traitsIcEERSt13basic_ostreamIT_T0_ES6_@GOTPCREL(%rip), %rax
	movq	%rax, %rsi
	movq	%rdx, %rdi
	call	_ZNSolsEPFRSoS_E@PLT
	leaq	.LC13(%rip), %rsi
	leaq	_ZSt4cout(%rip), %rdi
	call	_ZStlsISt11char_traitsIcEERSt13basic_ostreamIcT_ES5_PKc@PLT
	leaq	.LC14(%rip), %rsi
	movq	%rax, %rdi
	call	_ZStlsISt11char_traitsIcEERSt13basic_ostreamIcT_ES5_PKc@PLT
	leaq	.LC15(%rip), %rsi
	movq	%rax, %rdi
	call	_ZStlsISt11char_traitsIcEERSt13basic_ostreamIcT_ES5_PKc@PLT
	movq	%rax, %rdx
	movq	_ZSt4endlIcSt11char_traitsIcEERSt13basic_ostreamIT_T0_ES6_@GOTPCREL(%rip), %rax
	movq	%rax, %rsi
	movq	%rdx, %rdi
	call	_ZNSolsEPFRSoS_E@PLT
	movq	$0, -24(%rbp)
.L62:
	leaq	-112(%rbp), %rax
	movq	%rax, %rdi
	call	_ZNKSt6vectorImSaImEE4sizeEv
	cmpq	%rax, -24(%rbp)
	setb	%al
	testb	%al, %al
	je	.L61
	movq	-24(%rbp), %rdx
	leaq	-112(%rbp), %rax
	movq	%rdx, %rsi
	movq	%rax, %rdi
	call	_ZNSt6vectorImSaImEEixEm
	movq	(%rax), %rax
	movq	%rax, %rsi
	leaq	_ZSt4cout(%rip), %rdi
	call	_ZNSolsEm@PLT
	leaq	.LC14(%rip), %rsi
	movq	%rax, %rdi
	call	_ZStlsISt11char_traitsIcEERSt13basic_ostreamIcT_ES5_PKc@PLT
	movq	%rax, %rbx
	movq	-24(%rbp), %rdx
	leaq	-144(%rbp), %rax
	movq	%rdx, %rsi
	movq	%rax, %rdi
	call	_ZNSt6vectorIdSaIdEEixEm
	movq	(%rax), %rax
	vmovq	%rax, %xmm0
	movq	%rbx, %rdi
	call	_ZNSolsEd@PLT
	movq	%rax, %rdx
	movq	_ZSt4endlIcSt11char_traitsIcEERSt13basic_ostreamIT_T0_ES6_@GOTPCREL(%rip), %rax
	movq	%rax, %rsi
	movq	%rdx, %rdi
	call	_ZNSolsEPFRSoS_E@PLT
.LEHE1:
	incq	-24(%rbp)
	jmp	.L62
.L61:
	cmpq	$0, -32(%rbp)
	je	.L63
	movq	-32(%rbp), %rax
	movq	%rax, %rdi
	call	_ZdaPv@PLT
.L63:
	cmpq	$0, -40(%rbp)
	je	.L64
	movq	-40(%rbp), %rax
	movq	%rax, %rdi
	call	_ZdaPv@PLT
.L64:
	cmpq	$0, -56(%rbp)
	je	.L65
	movq	-56(%rbp), %rax
	movq	%rax, %rdi
	call	_ZdaPv@PLT
.L65:
	cmpq	$0, -64(%rbp)
	je	.L66
	movq	-64(%rbp), %rax
	movq	%rax, %rdi
	call	_ZdaPv@PLT
.L66:
	movl	$0, %ebx
	leaq	-144(%rbp), %rax
	movq	%rax, %rdi
	call	_ZNSt6vectorIdSaIdEED1Ev
	leaq	-112(%rbp), %rax
	movq	%rax, %rdi
	call	_ZNSt6vectorImSaImEED1Ev
	movl	%ebx, %eax
	jmp	.L72
.L71:
	movq	%rax, %rbx
	leaq	-144(%rbp), %rax
	movq	%rax, %rdi
	call	_ZNSt6vectorIdSaIdEED1Ev
	jmp	.L69
.L70:
	movq	%rax, %rbx
.L69:
	leaq	-112(%rbp), %rax
	movq	%rax, %rdi
	call	_ZNSt6vectorImSaImEED1Ev
	movq	%rbx, %rax
	movq	%rax, %rdi
.LEHB2:
	call	_Unwind_Resume@PLT
.LEHE2:
.L72:
	movq	-8(%rbp), %rbx
	leave
	.cfi_def_cfa 7, 8
	ret
	.cfi_endproc
.LFE2206:
	.globl	__gxx_personality_v0
	.section	.gcc_except_table,"a",@progbits
.LLSDA2206:
	.byte	0xff
	.byte	0xff
	.byte	0x1
	.uleb128 .LLSDACSE2206-.LLSDACSB2206
.LLSDACSB2206:
	.uleb128 .LEHB0-.LFB2206
	.uleb128 .LEHE0-.LEHB0
	.uleb128 .L70-.LFB2206
	.uleb128 0
	.uleb128 .LEHB1-.LFB2206
	.uleb128 .LEHE1-.LEHB1
	.uleb128 .L71-.LFB2206
	.uleb128 0
	.uleb128 .LEHB2-.LFB2206
	.uleb128 .LEHE2-.LEHB2
	.uleb128 0
	.uleb128 0
.LLSDACSE2206:
	.text
	.size	main, .-main
	.section	.text._ZNSt6chrono20__duration_cast_implINS_8durationIlSt5ratioILl1ELl1000000EEEES2_ILl1ELl1000EElLb1ELb0EE6__castIlS2_ILl1ELl1000000000EEEES4_RKNS1_IT_T0_EE,"axG",@progbits,_ZNSt6chrono20__duration_cast_implINS_8durationIlSt5ratioILl1ELl1000000EEEES2_ILl1ELl1000EElLb1ELb0EE6__castIlS2_ILl1ELl1000000000EEEES4_RKNS1_IT_T0_EE,comdat
	.weak	_ZNSt6chrono20__duration_cast_implINS_8durationIlSt5ratioILl1ELl1000000EEEES2_ILl1ELl1000EElLb1ELb0EE6__castIlS2_ILl1ELl1000000000EEEES4_RKNS1_IT_T0_EE
	.type	_ZNSt6chrono20__duration_cast_implINS_8durationIlSt5ratioILl1ELl1000000EEEES2_ILl1ELl1000EElLb1ELb0EE6__castIlS2_ILl1ELl1000000000EEEES4_RKNS1_IT_T0_EE, @function
_ZNSt6chrono20__duration_cast_implINS_8durationIlSt5ratioILl1ELl1000000EEEES2_ILl1ELl1000EElLb1ELb0EE6__castIlS2_ILl1ELl1000000000EEEES4_RKNS1_IT_T0_EE:
.LFB2502:
	.cfi_startproc
	pushq	%rbp
	.cfi_def_cfa_offset 16
	.cfi_offset 6, -16
	movq	%rsp, %rbp
	.cfi_def_cfa_register 6
	subq	$32, %rsp
	movq	%rdi, -24(%rbp)
	movq	-24(%rbp), %rax
	movq	%rax, %rdi
	call	_ZNKSt6chrono8durationIlSt5ratioILl1ELl1000000000EEE5countEv
	movq	%rax, %rcx
	movabsq	$2361183241434822607, %rdx
	movq	%rcx, %rax
	imulq	%rdx
	movq	%rdx, %rax
	sarq	$7, %rax
	sarq	$63, %rcx
	movq	%rcx, %rdx
	subq	%rdx, %rax
	movq	%rax, -8(%rbp)
	leaq	-8(%rbp), %rdx
	leaq	-16(%rbp), %rax
	movq	%rdx, %rsi
	movq	%rax, %rdi
	call	_ZNSt6chrono8durationIlSt5ratioILl1ELl1000000EEEC1IlvEERKT_
	movq	-16(%rbp), %rax
	leave
	.cfi_def_cfa 7, 8
	ret
	.cfi_endproc
.LFE2502:
	.size	_ZNSt6chrono20__duration_cast_implINS_8durationIlSt5ratioILl1ELl1000000EEEES2_ILl1ELl1000EElLb1ELb0EE6__castIlS2_ILl1ELl1000000000EEEES4_RKNS1_IT_T0_EE, .-_ZNSt6chrono20__duration_cast_implINS_8durationIlSt5ratioILl1ELl1000000EEEES2_ILl1ELl1000EElLb1ELb0EE6__castIlS2_ILl1ELl1000000000EEEES4_RKNS1_IT_T0_EE
	.section	.text._ZNSt12_Vector_baseImSaImEE12_Vector_implC2Ev,"axG",@progbits,_ZNSt12_Vector_baseImSaImEE12_Vector_implC5Ev,comdat
	.align 2
	.weak	_ZNSt12_Vector_baseImSaImEE12_Vector_implC2Ev
	.type	_ZNSt12_Vector_baseImSaImEE12_Vector_implC2Ev, @function
_ZNSt12_Vector_baseImSaImEE12_Vector_implC2Ev:
.LFB2506:
	.cfi_startproc
	pushq	%rbp
	.cfi_def_cfa_offset 16
	.cfi_offset 6, -16
	movq	%rsp, %rbp
	.cfi_def_cfa_register 6
	subq	$16, %rsp
	movq	%rdi, -8(%rbp)
	movq	-8(%rbp), %rax
	movq	%rax, %rdi
	call	_ZNSaImEC2Ev
	movq	-8(%rbp), %rax
	movq	%rax, %rdi
	call	_ZNSt12_Vector_baseImSaImEE17_Vector_impl_dataC2Ev
	nop
	leave
	.cfi_def_cfa 7, 8
	ret
	.cfi_endproc
.LFE2506:
	.size	_ZNSt12_Vector_baseImSaImEE12_Vector_implC2Ev, .-_ZNSt12_Vector_baseImSaImEE12_Vector_implC2Ev
	.weak	_ZNSt12_Vector_baseImSaImEE12_Vector_implC1Ev
	.set	_ZNSt12_Vector_baseImSaImEE12_Vector_implC1Ev,_ZNSt12_Vector_baseImSaImEE12_Vector_implC2Ev
	.section	.text._ZNSaImED2Ev,"axG",@progbits,_ZNSaImED5Ev,comdat
	.align 2
	.weak	_ZNSaImED2Ev
	.type	_ZNSaImED2Ev, @function
_ZNSaImED2Ev:
.LFB2509:
	.cfi_startproc
	pushq	%rbp
	.cfi_def_cfa_offset 16
	.cfi_offset 6, -16
	movq	%rsp, %rbp
	.cfi_def_cfa_register 6
	subq	$16, %rsp
	movq	%rdi, -8(%rbp)
	movq	-8(%rbp), %rax
	movq	%rax, %rdi
	call	_ZN9__gnu_cxx13new_allocatorImED2Ev
	nop
	leave
	.cfi_def_cfa 7, 8
	ret
	.cfi_endproc
.LFE2509:
	.size	_ZNSaImED2Ev, .-_ZNSaImED2Ev
	.weak	_ZNSaImED1Ev
	.set	_ZNSaImED1Ev,_ZNSaImED2Ev
	.section	.text._ZNSt12_Vector_baseImSaImEED2Ev,"axG",@progbits,_ZNSt12_Vector_baseImSaImEED5Ev,comdat
	.align 2
	.weak	_ZNSt12_Vector_baseImSaImEED2Ev
	.type	_ZNSt12_Vector_baseImSaImEED2Ev, @function
_ZNSt12_Vector_baseImSaImEED2Ev:
.LFB2512:
	.cfi_startproc
	.cfi_personality 0x9b,DW.ref.__gxx_personality_v0
	.cfi_lsda 0x1b,.LLSDA2512
	pushq	%rbp
	.cfi_def_cfa_offset 16
	.cfi_offset 6, -16
	movq	%rsp, %rbp
	.cfi_def_cfa_register 6
	subq	$16, %rsp
	movq	%rdi, -8(%rbp)
	movq	-8(%rbp), %rax
	movq	16(%rax), %rdx
	movq	-8(%rbp), %rax
	movq	(%rax), %rcx
	movq	%rdx, %rax
	subq	%rcx, %rax
	sarq	$3, %rax
	movq	%rax, %rdx
	movq	-8(%rbp), %rax
	movq	(%rax), %rcx
	movq	-8(%rbp), %rax
	movq	%rcx, %rsi
	movq	%rax, %rdi
	call	_ZNSt12_Vector_baseImSaImEE13_M_deallocateEPmm
	movq	-8(%rbp), %rax
	movq	%rax, %rdi
	call	_ZNSt12_Vector_baseImSaImEE12_Vector_implD1Ev
	nop
	leave
	.cfi_def_cfa 7, 8
	ret
	.cfi_endproc
.LFE2512:
	.section	.gcc_except_table
.LLSDA2512:
	.byte	0xff
	.byte	0xff
	.byte	0x1
	.uleb128 .LLSDACSE2512-.LLSDACSB2512
.LLSDACSB2512:
.LLSDACSE2512:
	.section	.text._ZNSt12_Vector_baseImSaImEED2Ev,"axG",@progbits,_ZNSt12_Vector_baseImSaImEED5Ev,comdat
	.size	_ZNSt12_Vector_baseImSaImEED2Ev, .-_ZNSt12_Vector_baseImSaImEED2Ev
	.weak	_ZNSt12_Vector_baseImSaImEED1Ev
	.set	_ZNSt12_Vector_baseImSaImEED1Ev,_ZNSt12_Vector_baseImSaImEED2Ev
	.section	.text._ZNSt6vectorImSaImEED2Ev,"axG",@progbits,_ZNSt6vectorImSaImEED5Ev,comdat
	.align 2
	.weak	_ZNSt6vectorImSaImEED2Ev
	.type	_ZNSt6vectorImSaImEED2Ev, @function
_ZNSt6vectorImSaImEED2Ev:
.LFB2515:
	.cfi_startproc
	.cfi_personality 0x9b,DW.ref.__gxx_personality_v0
	.cfi_lsda 0x1b,.LLSDA2515
	pushq	%rbp
	.cfi_def_cfa_offset 16
	.cfi_offset 6, -16
	movq	%rsp, %rbp
	.cfi_def_cfa_register 6
	subq	$16, %rsp
	movq	%rdi, -8(%rbp)
	movq	-8(%rbp), %rax
	movq	%rax, %rdi
	call	_ZNSt12_Vector_baseImSaImEE19_M_get_Tp_allocatorEv
	movq	%rax, %rdx
	movq	-8(%rbp), %rax
	movq	8(%rax), %rcx
	movq	-8(%rbp), %rax
	movq	(%rax), %rax
	movq	%rcx, %rsi
	movq	%rax, %rdi
	call	_ZSt8_DestroyIPmmEvT_S1_RSaIT0_E
	movq	-8(%rbp), %rax
	movq	%rax, %rdi
	call	_ZNSt12_Vector_baseImSaImEED2Ev
	nop
	leave
	.cfi_def_cfa 7, 8
	ret
	.cfi_endproc
.LFE2515:
	.section	.gcc_except_table
.LLSDA2515:
	.byte	0xff
	.byte	0xff
	.byte	0x1
	.uleb128 .LLSDACSE2515-.LLSDACSB2515
.LLSDACSB2515:
.LLSDACSE2515:
	.section	.text._ZNSt6vectorImSaImEED2Ev,"axG",@progbits,_ZNSt6vectorImSaImEED5Ev,comdat
	.size	_ZNSt6vectorImSaImEED2Ev, .-_ZNSt6vectorImSaImEED2Ev
	.weak	_ZNSt6vectorImSaImEED1Ev
	.set	_ZNSt6vectorImSaImEED1Ev,_ZNSt6vectorImSaImEED2Ev
	.section	.text._ZNSt6vectorImSaImEE12emplace_backIJRmEEEvDpOT_,"axG",@progbits,_ZNSt6vectorImSaImEE12emplace_backIJRmEEEvDpOT_,comdat
	.align 2
	.weak	_ZNSt6vectorImSaImEE12emplace_backIJRmEEEvDpOT_
	.type	_ZNSt6vectorImSaImEE12emplace_backIJRmEEEvDpOT_, @function
_ZNSt6vectorImSaImEE12emplace_backIJRmEEEvDpOT_:
.LFB2517:
	.cfi_startproc
	pushq	%rbp
	.cfi_def_cfa_offset 16
	.cfi_offset 6, -16
	movq	%rsp, %rbp
	.cfi_def_cfa_register 6
	pushq	%rbx
	subq	$24, %rsp
	.cfi_offset 3, -24
	movq	%rdi, -24(%rbp)
	movq	%rsi, -32(%rbp)
	movq	-24(%rbp), %rax
	movq	8(%rax), %rdx
	movq	-24(%rbp), %rax
	movq	16(%rax), %rax
	cmpq	%rax, %rdx
	je	.L80
	movq	-32(%rbp), %rax
	movq	%rax, %rdi
	call	_ZSt7forwardIRmEOT_RNSt16remove_referenceIS1_E4typeE
	movq	%rax, %rdx
	movq	-24(%rbp), %rax
	movq	8(%rax), %rcx
	movq	-24(%rbp), %rax
	movq	%rcx, %rsi
	movq	%rax, %rdi
	call	_ZNSt16allocator_traitsISaImEE9constructImJRmEEEvRS0_PT_DpOT0_
	movq	-24(%rbp), %rax
	movq	8(%rax), %rax
	leaq	8(%rax), %rdx
	movq	-24(%rbp), %rax
	movq	%rdx, 8(%rax)
	jmp	.L82
.L80:
	movq	-32(%rbp), %rax
	movq	%rax, %rdi
	call	_ZSt7forwardIRmEOT_RNSt16remove_referenceIS1_E4typeE
	movq	%rax, %rbx
	movq	-24(%rbp), %rax
	movq	%rax, %rdi
	call	_ZNSt6vectorImSaImEE3endEv
	movq	%rax, %rcx
	movq	-24(%rbp), %rax
	movq	%rbx, %rdx
	movq	%rcx, %rsi
	movq	%rax, %rdi
	call	_ZNSt6vectorImSaImEE17_M_realloc_insertIJRmEEEvN9__gnu_cxx17__normal_iteratorIPmS1_EEDpOT_
.L82:
	nop
	movq	-8(%rbp), %rbx
	leave
	.cfi_def_cfa 7, 8
	ret
	.cfi_endproc
.LFE2517:
	.size	_ZNSt6vectorImSaImEE12emplace_backIJRmEEEvDpOT_, .-_ZNSt6vectorImSaImEE12emplace_backIJRmEEEvDpOT_
	.section	.text._ZNSt6vectorImSaImEE4backEv,"axG",@progbits,_ZNSt6vectorImSaImEE4backEv,comdat
	.align 2
	.weak	_ZNSt6vectorImSaImEE4backEv
	.type	_ZNSt6vectorImSaImEE4backEv, @function
_ZNSt6vectorImSaImEE4backEv:
.LFB2519:
	.cfi_startproc
	pushq	%rbp
	.cfi_def_cfa_offset 16
	.cfi_offset 6, -16
	movq	%rsp, %rbp
	.cfi_def_cfa_register 6
	subq	$32, %rsp
	movq	%rdi, -24(%rbp)
	movq	-24(%rbp), %rax
	movq	%rax, %rdi
	call	_ZNSt6vectorImSaImEE3endEv
	movq	%rax, -8(%rbp)
	leaq	-8(%rbp), %rax
	movl	$1, %esi
	movq	%rax, %rdi
	call	_ZNK9__gnu_cxx17__normal_iteratorIPmSt6vectorImSaImEEEmiEl
	movq	%rax, -16(%rbp)
	leaq	-16(%rbp), %rax
	movq	%rax, %rdi
	call	_ZNK9__gnu_cxx17__normal_iteratorIPmSt6vectorImSaImEEEdeEv
	leave
	.cfi_def_cfa 7, 8
	ret
	.cfi_endproc
.LFE2519:
	.size	_ZNSt6vectorImSaImEE4backEv, .-_ZNSt6vectorImSaImEE4backEv
	.section	.text._ZNSt12_Vector_baseIdSaIdEE12_Vector_implC2Ev,"axG",@progbits,_ZNSt12_Vector_baseIdSaIdEE12_Vector_implC5Ev,comdat
	.align 2
	.weak	_ZNSt12_Vector_baseIdSaIdEE12_Vector_implC2Ev
	.type	_ZNSt12_Vector_baseIdSaIdEE12_Vector_implC2Ev, @function
_ZNSt12_Vector_baseIdSaIdEE12_Vector_implC2Ev:
.LFB2521:
	.cfi_startproc
	pushq	%rbp
	.cfi_def_cfa_offset 16
	.cfi_offset 6, -16
	movq	%rsp, %rbp
	.cfi_def_cfa_register 6
	subq	$16, %rsp
	movq	%rdi, -8(%rbp)
	movq	-8(%rbp), %rax
	movq	%rax, %rdi
	call	_ZNSaIdEC2Ev
	movq	-8(%rbp), %rax
	movq	%rax, %rdi
	call	_ZNSt12_Vector_baseIdSaIdEE17_Vector_impl_dataC2Ev
	nop
	leave
	.cfi_def_cfa 7, 8
	ret
	.cfi_endproc
.LFE2521:
	.size	_ZNSt12_Vector_baseIdSaIdEE12_Vector_implC2Ev, .-_ZNSt12_Vector_baseIdSaIdEE12_Vector_implC2Ev
	.weak	_ZNSt12_Vector_baseIdSaIdEE12_Vector_implC1Ev
	.set	_ZNSt12_Vector_baseIdSaIdEE12_Vector_implC1Ev,_ZNSt12_Vector_baseIdSaIdEE12_Vector_implC2Ev
	.section	.text._ZNSaIdED2Ev,"axG",@progbits,_ZNSaIdED5Ev,comdat
	.align 2
	.weak	_ZNSaIdED2Ev
	.type	_ZNSaIdED2Ev, @function
_ZNSaIdED2Ev:
.LFB2524:
	.cfi_startproc
	pushq	%rbp
	.cfi_def_cfa_offset 16
	.cfi_offset 6, -16
	movq	%rsp, %rbp
	.cfi_def_cfa_register 6
	subq	$16, %rsp
	movq	%rdi, -8(%rbp)
	movq	-8(%rbp), %rax
	movq	%rax, %rdi
	call	_ZN9__gnu_cxx13new_allocatorIdED2Ev
	nop
	leave
	.cfi_def_cfa 7, 8
	ret
	.cfi_endproc
.LFE2524:
	.size	_ZNSaIdED2Ev, .-_ZNSaIdED2Ev
	.weak	_ZNSaIdED1Ev
	.set	_ZNSaIdED1Ev,_ZNSaIdED2Ev
	.section	.text._ZNSt12_Vector_baseIdSaIdEED2Ev,"axG",@progbits,_ZNSt12_Vector_baseIdSaIdEED5Ev,comdat
	.align 2
	.weak	_ZNSt12_Vector_baseIdSaIdEED2Ev
	.type	_ZNSt12_Vector_baseIdSaIdEED2Ev, @function
_ZNSt12_Vector_baseIdSaIdEED2Ev:
.LFB2527:
	.cfi_startproc
	.cfi_personality 0x9b,DW.ref.__gxx_personality_v0
	.cfi_lsda 0x1b,.LLSDA2527
	pushq	%rbp
	.cfi_def_cfa_offset 16
	.cfi_offset 6, -16
	movq	%rsp, %rbp
	.cfi_def_cfa_register 6
	subq	$16, %rsp
	movq	%rdi, -8(%rbp)
	movq	-8(%rbp), %rax
	movq	16(%rax), %rdx
	movq	-8(%rbp), %rax
	movq	(%rax), %rcx
	movq	%rdx, %rax
	subq	%rcx, %rax
	sarq	$3, %rax
	movq	%rax, %rdx
	movq	-8(%rbp), %rax
	movq	(%rax), %rcx
	movq	-8(%rbp), %rax
	movq	%rcx, %rsi
	movq	%rax, %rdi
	call	_ZNSt12_Vector_baseIdSaIdEE13_M_deallocateEPdm
	movq	-8(%rbp), %rax
	movq	%rax, %rdi
	call	_ZNSt12_Vector_baseIdSaIdEE12_Vector_implD1Ev
	nop
	leave
	.cfi_def_cfa 7, 8
	ret
	.cfi_endproc
.LFE2527:
	.section	.gcc_except_table
.LLSDA2527:
	.byte	0xff
	.byte	0xff
	.byte	0x1
	.uleb128 .LLSDACSE2527-.LLSDACSB2527
.LLSDACSB2527:
.LLSDACSE2527:
	.section	.text._ZNSt12_Vector_baseIdSaIdEED2Ev,"axG",@progbits,_ZNSt12_Vector_baseIdSaIdEED5Ev,comdat
	.size	_ZNSt12_Vector_baseIdSaIdEED2Ev, .-_ZNSt12_Vector_baseIdSaIdEED2Ev
	.weak	_ZNSt12_Vector_baseIdSaIdEED1Ev
	.set	_ZNSt12_Vector_baseIdSaIdEED1Ev,_ZNSt12_Vector_baseIdSaIdEED2Ev
	.section	.text._ZNSt6vectorIdSaIdEED2Ev,"axG",@progbits,_ZNSt6vectorIdSaIdEED5Ev,comdat
	.align 2
	.weak	_ZNSt6vectorIdSaIdEED2Ev
	.type	_ZNSt6vectorIdSaIdEED2Ev, @function
_ZNSt6vectorIdSaIdEED2Ev:
.LFB2530:
	.cfi_startproc
	.cfi_personality 0x9b,DW.ref.__gxx_personality_v0
	.cfi_lsda 0x1b,.LLSDA2530
	pushq	%rbp
	.cfi_def_cfa_offset 16
	.cfi_offset 6, -16
	movq	%rsp, %rbp
	.cfi_def_cfa_register 6
	subq	$16, %rsp
	movq	%rdi, -8(%rbp)
	movq	-8(%rbp), %rax
	movq	%rax, %rdi
	call	_ZNSt12_Vector_baseIdSaIdEE19_M_get_Tp_allocatorEv
	movq	%rax, %rdx
	movq	-8(%rbp), %rax
	movq	8(%rax), %rcx
	movq	-8(%rbp), %rax
	movq	(%rax), %rax
	movq	%rcx, %rsi
	movq	%rax, %rdi
	call	_ZSt8_DestroyIPddEvT_S1_RSaIT0_E
	movq	-8(%rbp), %rax
	movq	%rax, %rdi
	call	_ZNSt12_Vector_baseIdSaIdEED2Ev
	nop
	leave
	.cfi_def_cfa 7, 8
	ret
	.cfi_endproc
.LFE2530:
	.section	.gcc_except_table
.LLSDA2530:
	.byte	0xff
	.byte	0xff
	.byte	0x1
	.uleb128 .LLSDACSE2530-.LLSDACSB2530
.LLSDACSB2530:
.LLSDACSE2530:
	.section	.text._ZNSt6vectorIdSaIdEED2Ev,"axG",@progbits,_ZNSt6vectorIdSaIdEED5Ev,comdat
	.size	_ZNSt6vectorIdSaIdEED2Ev, .-_ZNSt6vectorIdSaIdEED2Ev
	.weak	_ZNSt6vectorIdSaIdEED1Ev
	.set	_ZNSt6vectorIdSaIdEED1Ev,_ZNSt6vectorIdSaIdEED2Ev
	.section	.text._ZNSt6vectorImSaImEE5beginEv,"axG",@progbits,_ZNSt6vectorImSaImEE5beginEv,comdat
	.align 2
	.weak	_ZNSt6vectorImSaImEE5beginEv
	.type	_ZNSt6vectorImSaImEE5beginEv, @function
_ZNSt6vectorImSaImEE5beginEv:
.LFB2532:
	.cfi_startproc
	pushq	%rbp
	.cfi_def_cfa_offset 16
	.cfi_offset 6, -16
	movq	%rsp, %rbp
	.cfi_def_cfa_register 6
	subq	$32, %rsp
	movq	%rdi, -24(%rbp)
	movq	-24(%rbp), %rdx
	leaq	-8(%rbp), %rax
	movq	%rdx, %rsi
	movq	%rax, %rdi
	call	_ZN9__gnu_cxx17__normal_iteratorIPmSt6vectorImSaImEEEC1ERKS1_
	movq	-8(%rbp), %rax
	leave
	.cfi_def_cfa 7, 8
	ret
	.cfi_endproc
.LFE2532:
	.size	_ZNSt6vectorImSaImEE5beginEv, .-_ZNSt6vectorImSaImEE5beginEv
	.section	.text._ZNSt6vectorImSaImEE3endEv,"axG",@progbits,_ZNSt6vectorImSaImEE3endEv,comdat
	.align 2
	.weak	_ZNSt6vectorImSaImEE3endEv
	.type	_ZNSt6vectorImSaImEE3endEv, @function
_ZNSt6vectorImSaImEE3endEv:
.LFB2533:
	.cfi_startproc
	pushq	%rbp
	.cfi_def_cfa_offset 16
	.cfi_offset 6, -16
	movq	%rsp, %rbp
	.cfi_def_cfa_register 6
	subq	$32, %rsp
	movq	%rdi, -24(%rbp)
	movq	-24(%rbp), %rax
	leaq	8(%rax), %rdx
	leaq	-8(%rbp), %rax
	movq	%rdx, %rsi
	movq	%rax, %rdi
	call	_ZN9__gnu_cxx17__normal_iteratorIPmSt6vectorImSaImEEEC1ERKS1_
	movq	-8(%rbp), %rax
	leave
	.cfi_def_cfa 7, 8
	ret
	.cfi_endproc
.LFE2533:
	.size	_ZNSt6vectorImSaImEE3endEv, .-_ZNSt6vectorImSaImEE3endEv
	.section	.text._ZN9__gnu_cxxneIPmSt6vectorImSaImEEEEbRKNS_17__normal_iteratorIT_T0_EESA_,"axG",@progbits,_ZN9__gnu_cxxneIPmSt6vectorImSaImEEEEbRKNS_17__normal_iteratorIT_T0_EESA_,comdat
	.weak	_ZN9__gnu_cxxneIPmSt6vectorImSaImEEEEbRKNS_17__normal_iteratorIT_T0_EESA_
	.type	_ZN9__gnu_cxxneIPmSt6vectorImSaImEEEEbRKNS_17__normal_iteratorIT_T0_EESA_, @function
_ZN9__gnu_cxxneIPmSt6vectorImSaImEEEEbRKNS_17__normal_iteratorIT_T0_EESA_:
.LFB2534:
	.cfi_startproc
	pushq	%rbp
	.cfi_def_cfa_offset 16
	.cfi_offset 6, -16
	movq	%rsp, %rbp
	.cfi_def_cfa_register 6
	pushq	%rbx
	subq	$24, %rsp
	.cfi_offset 3, -24
	movq	%rdi, -24(%rbp)
	movq	%rsi, -32(%rbp)
	movq	-24(%rbp), %rax
	movq	%rax, %rdi
	call	_ZNK9__gnu_cxx17__normal_iteratorIPmSt6vectorImSaImEEE4baseEv
	movq	(%rax), %rbx
	movq	-32(%rbp), %rax
	movq	%rax, %rdi
	call	_ZNK9__gnu_cxx17__normal_iteratorIPmSt6vectorImSaImEEE4baseEv
	movq	(%rax), %rax
	cmpq	%rax, %rbx
	setne	%al
	movq	-8(%rbp), %rbx
	leave
	.cfi_def_cfa 7, 8
	ret
	.cfi_endproc
.LFE2534:
	.size	_ZN9__gnu_cxxneIPmSt6vectorImSaImEEEEbRKNS_17__normal_iteratorIT_T0_EESA_, .-_ZN9__gnu_cxxneIPmSt6vectorImSaImEEEEbRKNS_17__normal_iteratorIT_T0_EESA_
	.section	.text._ZN9__gnu_cxx17__normal_iteratorIPmSt6vectorImSaImEEEppEv,"axG",@progbits,_ZN9__gnu_cxx17__normal_iteratorIPmSt6vectorImSaImEEEppEv,comdat
	.align 2
	.weak	_ZN9__gnu_cxx17__normal_iteratorIPmSt6vectorImSaImEEEppEv
	.type	_ZN9__gnu_cxx17__normal_iteratorIPmSt6vectorImSaImEEEppEv, @function
_ZN9__gnu_cxx17__normal_iteratorIPmSt6vectorImSaImEEEppEv:
.LFB2535:
	.cfi_startproc
	pushq	%rbp
	.cfi_def_cfa_offset 16
	.cfi_offset 6, -16
	movq	%rsp, %rbp
	.cfi_def_cfa_register 6
	movq	%rdi, -8(%rbp)
	movq	-8(%rbp), %rax
	movq	(%rax), %rax
	leaq	8(%rax), %rdx
	movq	-8(%rbp), %rax
	movq	%rdx, (%rax)
	movq	-8(%rbp), %rax
	popq	%rbp
	.cfi_def_cfa 7, 8
	ret
	.cfi_endproc
.LFE2535:
	.size	_ZN9__gnu_cxx17__normal_iteratorIPmSt6vectorImSaImEEEppEv, .-_ZN9__gnu_cxx17__normal_iteratorIPmSt6vectorImSaImEEEppEv
	.section	.text._ZNK9__gnu_cxx17__normal_iteratorIPmSt6vectorImSaImEEEdeEv,"axG",@progbits,_ZNK9__gnu_cxx17__normal_iteratorIPmSt6vectorImSaImEEEdeEv,comdat
	.align 2
	.weak	_ZNK9__gnu_cxx17__normal_iteratorIPmSt6vectorImSaImEEEdeEv
	.type	_ZNK9__gnu_cxx17__normal_iteratorIPmSt6vectorImSaImEEEdeEv, @function
_ZNK9__gnu_cxx17__normal_iteratorIPmSt6vectorImSaImEEEdeEv:
.LFB2536:
	.cfi_startproc
	pushq	%rbp
	.cfi_def_cfa_offset 16
	.cfi_offset 6, -16
	movq	%rsp, %rbp
	.cfi_def_cfa_register 6
	movq	%rdi, -8(%rbp)
	movq	-8(%rbp), %rax
	movq	(%rax), %rax
	popq	%rbp
	.cfi_def_cfa 7, 8
	ret
	.cfi_endproc
.LFE2536:
	.size	_ZNK9__gnu_cxx17__normal_iteratorIPmSt6vectorImSaImEEEdeEv, .-_ZNK9__gnu_cxx17__normal_iteratorIPmSt6vectorImSaImEEEdeEv
	.section	.text._ZNSt6vectorIdSaIdEE12emplace_backIJdEEEvDpOT_,"axG",@progbits,_ZNSt6vectorIdSaIdEE12emplace_backIJdEEEvDpOT_,comdat
	.align 2
	.weak	_ZNSt6vectorIdSaIdEE12emplace_backIJdEEEvDpOT_
	.type	_ZNSt6vectorIdSaIdEE12emplace_backIJdEEEvDpOT_, @function
_ZNSt6vectorIdSaIdEE12emplace_backIJdEEEvDpOT_:
.LFB2537:
	.cfi_startproc
	pushq	%rbp
	.cfi_def_cfa_offset 16
	.cfi_offset 6, -16
	movq	%rsp, %rbp
	.cfi_def_cfa_register 6
	pushq	%rbx
	subq	$24, %rsp
	.cfi_offset 3, -24
	movq	%rdi, -24(%rbp)
	movq	%rsi, -32(%rbp)
	movq	-24(%rbp), %rax
	movq	8(%rax), %rdx
	movq	-24(%rbp), %rax
	movq	16(%rax), %rax
	cmpq	%rax, %rdx
	je	.L100
	movq	-32(%rbp), %rax
	movq	%rax, %rdi
	call	_ZSt7forwardIdEOT_RNSt16remove_referenceIS0_E4typeE
	movq	%rax, %rdx
	movq	-24(%rbp), %rax
	movq	8(%rax), %rcx
	movq	-24(%rbp), %rax
	movq	%rcx, %rsi
	movq	%rax, %rdi
	call	_ZNSt16allocator_traitsISaIdEE9constructIdJdEEEvRS0_PT_DpOT0_
	movq	-24(%rbp), %rax
	movq	8(%rax), %rax
	leaq	8(%rax), %rdx
	movq	-24(%rbp), %rax
	movq	%rdx, 8(%rax)
	jmp	.L102
.L100:
	movq	-32(%rbp), %rax
	movq	%rax, %rdi
	call	_ZSt7forwardIdEOT_RNSt16remove_referenceIS0_E4typeE
	movq	%rax, %rbx
	movq	-24(%rbp), %rax
	movq	%rax, %rdi
	call	_ZNSt6vectorIdSaIdEE3endEv
	movq	%rax, %rcx
	movq	-24(%rbp), %rax
	movq	%rbx, %rdx
	movq	%rcx, %rsi
	movq	%rax, %rdi
	call	_ZNSt6vectorIdSaIdEE17_M_realloc_insertIJdEEEvN9__gnu_cxx17__normal_iteratorIPdS1_EEDpOT_
.L102:
	nop
	movq	-8(%rbp), %rbx
	leave
	.cfi_def_cfa 7, 8
	ret
	.cfi_endproc
.LFE2537:
	.size	_ZNSt6vectorIdSaIdEE12emplace_backIJdEEEvDpOT_, .-_ZNSt6vectorIdSaIdEE12emplace_backIJdEEEvDpOT_
	.section	.text._ZNKSt6vectorImSaImEE4sizeEv,"axG",@progbits,_ZNKSt6vectorImSaImEE4sizeEv,comdat
	.align 2
	.weak	_ZNKSt6vectorImSaImEE4sizeEv
	.type	_ZNKSt6vectorImSaImEE4sizeEv, @function
_ZNKSt6vectorImSaImEE4sizeEv:
.LFB2539:
	.cfi_startproc
	pushq	%rbp
	.cfi_def_cfa_offset 16
	.cfi_offset 6, -16
	movq	%rsp, %rbp
	.cfi_def_cfa_register 6
	movq	%rdi, -8(%rbp)
	movq	-8(%rbp), %rax
	movq	8(%rax), %rdx
	movq	-8(%rbp), %rax
	movq	(%rax), %rcx
	movq	%rdx, %rax
	subq	%rcx, %rax
	sarq	$3, %rax
	popq	%rbp
	.cfi_def_cfa 7, 8
	ret
	.cfi_endproc
.LFE2539:
	.size	_ZNKSt6vectorImSaImEE4sizeEv, .-_ZNKSt6vectorImSaImEE4sizeEv
	.section	.text._ZNSt6vectorImSaImEEixEm,"axG",@progbits,_ZNSt6vectorImSaImEEixEm,comdat
	.align 2
	.weak	_ZNSt6vectorImSaImEEixEm
	.type	_ZNSt6vectorImSaImEEixEm, @function
_ZNSt6vectorImSaImEEixEm:
.LFB2540:
	.cfi_startproc
	pushq	%rbp
	.cfi_def_cfa_offset 16
	.cfi_offset 6, -16
	movq	%rsp, %rbp
	.cfi_def_cfa_register 6
	movq	%rdi, -8(%rbp)
	movq	%rsi, -16(%rbp)
	movq	-8(%rbp), %rax
	movq	(%rax), %rdx
	movq	-16(%rbp), %rax
	salq	$3, %rax
	addq	%rdx, %rax
	popq	%rbp
	.cfi_def_cfa 7, 8
	ret
	.cfi_endproc
.LFE2540:
	.size	_ZNSt6vectorImSaImEEixEm, .-_ZNSt6vectorImSaImEEixEm
	.section	.text._ZNSt6vectorIdSaIdEEixEm,"axG",@progbits,_ZNSt6vectorIdSaIdEEixEm,comdat
	.align 2
	.weak	_ZNSt6vectorIdSaIdEEixEm
	.type	_ZNSt6vectorIdSaIdEEixEm, @function
_ZNSt6vectorIdSaIdEEixEm:
.LFB2541:
	.cfi_startproc
	pushq	%rbp
	.cfi_def_cfa_offset 16
	.cfi_offset 6, -16
	movq	%rsp, %rbp
	.cfi_def_cfa_register 6
	movq	%rdi, -8(%rbp)
	movq	%rsi, -16(%rbp)
	movq	-8(%rbp), %rax
	movq	(%rax), %rdx
	movq	-16(%rbp), %rax
	salq	$3, %rax
	addq	%rdx, %rax
	popq	%rbp
	.cfi_def_cfa 7, 8
	ret
	.cfi_endproc
.LFE2541:
	.size	_ZNSt6vectorIdSaIdEEixEm, .-_ZNSt6vectorIdSaIdEEixEm
	.section	.text._ZNSt6chrono8durationIlSt5ratioILl1ELl1000000EEEC2IlvEERKT_,"axG",@progbits,_ZNSt6chrono8durationIlSt5ratioILl1ELl1000000EEEC5IlvEERKT_,comdat
	.align 2
	.weak	_ZNSt6chrono8durationIlSt5ratioILl1ELl1000000EEEC2IlvEERKT_
	.type	_ZNSt6chrono8durationIlSt5ratioILl1ELl1000000EEEC2IlvEERKT_, @function
_ZNSt6chrono8durationIlSt5ratioILl1ELl1000000EEEC2IlvEERKT_:
.LFB2661:
	.cfi_startproc
	pushq	%rbp
	.cfi_def_cfa_offset 16
	.cfi_offset 6, -16
	movq	%rsp, %rbp
	.cfi_def_cfa_register 6
	movq	%rdi, -8(%rbp)
	movq	%rsi, -16(%rbp)
	movq	-16(%rbp), %rax
	movq	(%rax), %rdx
	movq	-8(%rbp), %rax
	movq	%rdx, (%rax)
	nop
	popq	%rbp
	.cfi_def_cfa 7, 8
	ret
	.cfi_endproc
.LFE2661:
	.size	_ZNSt6chrono8durationIlSt5ratioILl1ELl1000000EEEC2IlvEERKT_, .-_ZNSt6chrono8durationIlSt5ratioILl1ELl1000000EEEC2IlvEERKT_
	.weak	_ZNSt6chrono8durationIlSt5ratioILl1ELl1000000EEEC1IlvEERKT_
	.set	_ZNSt6chrono8durationIlSt5ratioILl1ELl1000000EEEC1IlvEERKT_,_ZNSt6chrono8durationIlSt5ratioILl1ELl1000000EEEC2IlvEERKT_
	.section	.text._ZNSaImEC2Ev,"axG",@progbits,_ZNSaImEC5Ev,comdat
	.align 2
	.weak	_ZNSaImEC2Ev
	.type	_ZNSaImEC2Ev, @function
_ZNSaImEC2Ev:
.LFB2664:
	.cfi_startproc
	pushq	%rbp
	.cfi_def_cfa_offset 16
	.cfi_offset 6, -16
	movq	%rsp, %rbp
	.cfi_def_cfa_register 6
	subq	$16, %rsp
	movq	%rdi, -8(%rbp)
	movq	-8(%rbp), %rax
	movq	%rax, %rdi
	call	_ZN9__gnu_cxx13new_allocatorImEC2Ev
	nop
	leave
	.cfi_def_cfa 7, 8
	ret
	.cfi_endproc
.LFE2664:
	.size	_ZNSaImEC2Ev, .-_ZNSaImEC2Ev
	.weak	_ZNSaImEC1Ev
	.set	_ZNSaImEC1Ev,_ZNSaImEC2Ev
	.section	.text._ZNSt12_Vector_baseImSaImEE17_Vector_impl_dataC2Ev,"axG",@progbits,_ZNSt12_Vector_baseImSaImEE17_Vector_impl_dataC5Ev,comdat
	.align 2
	.weak	_ZNSt12_Vector_baseImSaImEE17_Vector_impl_dataC2Ev
	.type	_ZNSt12_Vector_baseImSaImEE17_Vector_impl_dataC2Ev, @function
_ZNSt12_Vector_baseImSaImEE17_Vector_impl_dataC2Ev:
.LFB2667:
	.cfi_startproc
	pushq	%rbp
	.cfi_def_cfa_offset 16
	.cfi_offset 6, -16
	movq	%rsp, %rbp
	.cfi_def_cfa_register 6
	movq	%rdi, -8(%rbp)
	movq	-8(%rbp), %rax
	movq	$0, (%rax)
	movq	-8(%rbp), %rax
	movq	$0, 8(%rax)
	movq	-8(%rbp), %rax
	movq	$0, 16(%rax)
	nop
	popq	%rbp
	.cfi_def_cfa 7, 8
	ret
	.cfi_endproc
.LFE2667:
	.size	_ZNSt12_Vector_baseImSaImEE17_Vector_impl_dataC2Ev, .-_ZNSt12_Vector_baseImSaImEE17_Vector_impl_dataC2Ev
	.weak	_ZNSt12_Vector_baseImSaImEE17_Vector_impl_dataC1Ev
	.set	_ZNSt12_Vector_baseImSaImEE17_Vector_impl_dataC1Ev,_ZNSt12_Vector_baseImSaImEE17_Vector_impl_dataC2Ev
	.section	.text._ZN9__gnu_cxx13new_allocatorImED2Ev,"axG",@progbits,_ZN9__gnu_cxx13new_allocatorImED5Ev,comdat
	.align 2
	.weak	_ZN9__gnu_cxx13new_allocatorImED2Ev
	.type	_ZN9__gnu_cxx13new_allocatorImED2Ev, @function
_ZN9__gnu_cxx13new_allocatorImED2Ev:
.LFB2670:
	.cfi_startproc
	pushq	%rbp
	.cfi_def_cfa_offset 16
	.cfi_offset 6, -16
	movq	%rsp, %rbp
	.cfi_def_cfa_register 6
	movq	%rdi, -8(%rbp)
	nop
	popq	%rbp
	.cfi_def_cfa 7, 8
	ret
	.cfi_endproc
.LFE2670:
	.size	_ZN9__gnu_cxx13new_allocatorImED2Ev, .-_ZN9__gnu_cxx13new_allocatorImED2Ev
	.weak	_ZN9__gnu_cxx13new_allocatorImED1Ev
	.set	_ZN9__gnu_cxx13new_allocatorImED1Ev,_ZN9__gnu_cxx13new_allocatorImED2Ev
	.section	.text._ZNSt12_Vector_baseImSaImEE13_M_deallocateEPmm,"axG",@progbits,_ZNSt12_Vector_baseImSaImEE13_M_deallocateEPmm,comdat
	.align 2
	.weak	_ZNSt12_Vector_baseImSaImEE13_M_deallocateEPmm
	.type	_ZNSt12_Vector_baseImSaImEE13_M_deallocateEPmm, @function
_ZNSt12_Vector_baseImSaImEE13_M_deallocateEPmm:
.LFB2672:
	.cfi_startproc
	pushq	%rbp
	.cfi_def_cfa_offset 16
	.cfi_offset 6, -16
	movq	%rsp, %rbp
	.cfi_def_cfa_register 6
	subq	$32, %rsp
	movq	%rdi, -8(%rbp)
	movq	%rsi, -16(%rbp)
	movq	%rdx, -24(%rbp)
	cmpq	$0, -16(%rbp)
	je	.L115
	movq	-8(%rbp), %rax
	movq	-24(%rbp), %rdx
	movq	-16(%rbp), %rcx
	movq	%rcx, %rsi
	movq	%rax, %rdi
	call	_ZNSt16allocator_traitsISaImEE10deallocateERS0_Pmm
.L115:
	nop
	leave
	.cfi_def_cfa 7, 8
	ret
	.cfi_endproc
.LFE2672:
	.size	_ZNSt12_Vector_baseImSaImEE13_M_deallocateEPmm, .-_ZNSt12_Vector_baseImSaImEE13_M_deallocateEPmm
	.section	.text._ZNSt12_Vector_baseImSaImEE19_M_get_Tp_allocatorEv,"axG",@progbits,_ZNSt12_Vector_baseImSaImEE19_M_get_Tp_allocatorEv,comdat
	.align 2
	.weak	_ZNSt12_Vector_baseImSaImEE19_M_get_Tp_allocatorEv
	.type	_ZNSt12_Vector_baseImSaImEE19_M_get_Tp_allocatorEv, @function
_ZNSt12_Vector_baseImSaImEE19_M_get_Tp_allocatorEv:
.LFB2673:
	.cfi_startproc
	pushq	%rbp
	.cfi_def_cfa_offset 16
	.cfi_offset 6, -16
	movq	%rsp, %rbp
	.cfi_def_cfa_register 6
	movq	%rdi, -8(%rbp)
	movq	-8(%rbp), %rax
	popq	%rbp
	.cfi_def_cfa 7, 8
	ret
	.cfi_endproc
.LFE2673:
	.size	_ZNSt12_Vector_baseImSaImEE19_M_get_Tp_allocatorEv, .-_ZNSt12_Vector_baseImSaImEE19_M_get_Tp_allocatorEv
	.section	.text._ZSt8_DestroyIPmmEvT_S1_RSaIT0_E,"axG",@progbits,_ZSt8_DestroyIPmmEvT_S1_RSaIT0_E,comdat
	.weak	_ZSt8_DestroyIPmmEvT_S1_RSaIT0_E
	.type	_ZSt8_DestroyIPmmEvT_S1_RSaIT0_E, @function
_ZSt8_DestroyIPmmEvT_S1_RSaIT0_E:
.LFB2674:
	.cfi_startproc
	pushq	%rbp
	.cfi_def_cfa_offset 16
	.cfi_offset 6, -16
	movq	%rsp, %rbp
	.cfi_def_cfa_register 6
	subq	$32, %rsp
	movq	%rdi, -8(%rbp)
	movq	%rsi, -16(%rbp)
	movq	%rdx, -24(%rbp)
	movq	-16(%rbp), %rdx
	movq	-8(%rbp), %rax
	movq	%rdx, %rsi
	movq	%rax, %rdi
	call	_ZSt8_DestroyIPmEvT_S1_
	nop
	leave
	.cfi_def_cfa 7, 8
	ret
	.cfi_endproc
.LFE2674:
	.size	_ZSt8_DestroyIPmmEvT_S1_RSaIT0_E, .-_ZSt8_DestroyIPmmEvT_S1_RSaIT0_E
	.section	.text._ZSt7forwardIRmEOT_RNSt16remove_referenceIS1_E4typeE,"axG",@progbits,_ZSt7forwardIRmEOT_RNSt16remove_referenceIS1_E4typeE,comdat
	.weak	_ZSt7forwardIRmEOT_RNSt16remove_referenceIS1_E4typeE
	.type	_ZSt7forwardIRmEOT_RNSt16remove_referenceIS1_E4typeE, @function
_ZSt7forwardIRmEOT_RNSt16remove_referenceIS1_E4typeE:
.LFB2675:
	.cfi_startproc
	pushq	%rbp
	.cfi_def_cfa_offset 16
	.cfi_offset 6, -16
	movq	%rsp, %rbp
	.cfi_def_cfa_register 6
	movq	%rdi, -8(%rbp)
	movq	-8(%rbp), %rax
	popq	%rbp
	.cfi_def_cfa 7, 8
	ret
	.cfi_endproc
.LFE2675:
	.size	_ZSt7forwardIRmEOT_RNSt16remove_referenceIS1_E4typeE, .-_ZSt7forwardIRmEOT_RNSt16remove_referenceIS1_E4typeE
	.section	.text._ZNSt16allocator_traitsISaImEE9constructImJRmEEEvRS0_PT_DpOT0_,"axG",@progbits,_ZNSt16allocator_traitsISaImEE9constructImJRmEEEvRS0_PT_DpOT0_,comdat
	.weak	_ZNSt16allocator_traitsISaImEE9constructImJRmEEEvRS0_PT_DpOT0_
	.type	_ZNSt16allocator_traitsISaImEE9constructImJRmEEEvRS0_PT_DpOT0_, @function
_ZNSt16allocator_traitsISaImEE9constructImJRmEEEvRS0_PT_DpOT0_:
.LFB2676:
	.cfi_startproc
	pushq	%rbp
	.cfi_def_cfa_offset 16
	.cfi_offset 6, -16
	movq	%rsp, %rbp
	.cfi_def_cfa_register 6
	subq	$32, %rsp
	movq	%rdi, -8(%rbp)
	movq	%rsi, -16(%rbp)
	movq	%rdx, -24(%rbp)
	movq	-24(%rbp), %rax
	movq	%rax, %rdi
	call	_ZSt7forwardIRmEOT_RNSt16remove_referenceIS1_E4typeE
	movq	%rax, %rdx
	movq	-16(%rbp), %rcx
	movq	-8(%rbp), %rax
	movq	%rcx, %rsi
	movq	%rax, %rdi
	call	_ZN9__gnu_cxx13new_allocatorImE9constructImJRmEEEvPT_DpOT0_
	nop
	leave
	.cfi_def_cfa 7, 8
	ret
	.cfi_endproc
.LFE2676:
	.size	_ZNSt16allocator_traitsISaImEE9constructImJRmEEEvRS0_PT_DpOT0_, .-_ZNSt16allocator_traitsISaImEE9constructImJRmEEEvRS0_PT_DpOT0_
	.section	.text._ZNSt6vectorImSaImEE15_S_use_relocateEv,"axG",@progbits,_ZNSt6vectorImSaImEE15_S_use_relocateEv,comdat
	.weak	_ZNSt6vectorImSaImEE15_S_use_relocateEv
	.type	_ZNSt6vectorImSaImEE15_S_use_relocateEv, @function
_ZNSt6vectorImSaImEE15_S_use_relocateEv:
.LFB2678:
	.cfi_startproc
	pushq	%rbp
	.cfi_def_cfa_offset 16
	.cfi_offset 6, -16
	movq	%rsp, %rbp
	.cfi_def_cfa_register 6
	subq	$16, %rsp
	call	_ZNSt6vectorImSaImEE19_S_nothrow_relocateESt17integral_constantIbLb1EE
	leave
	.cfi_def_cfa 7, 8
	ret
	.cfi_endproc
.LFE2678:
	.size	_ZNSt6vectorImSaImEE15_S_use_relocateEv, .-_ZNSt6vectorImSaImEE15_S_use_relocateEv
	.section	.text._ZNSt6vectorImSaImEE19_S_nothrow_relocateESt17integral_constantIbLb1EE,"axG",@progbits,_ZNSt6vectorImSaImEE19_S_nothrow_relocateESt17integral_constantIbLb1EE,comdat
	.weak	_ZNSt6vectorImSaImEE19_S_nothrow_relocateESt17integral_constantIbLb1EE
	.type	_ZNSt6vectorImSaImEE19_S_nothrow_relocateESt17integral_constantIbLb1EE, @function
_ZNSt6vectorImSaImEE19_S_nothrow_relocateESt17integral_constantIbLb1EE:
.LFB2679:
	.cfi_startproc
	pushq	%rbp
	.cfi_def_cfa_offset 16
	.cfi_offset 6, -16
	movq	%rsp, %rbp
	.cfi_def_cfa_register 6
	movl	$1, %eax
	popq	%rbp
	.cfi_def_cfa 7, 8
	ret
	.cfi_endproc
.LFE2679:
	.size	_ZNSt6vectorImSaImEE19_S_nothrow_relocateESt17integral_constantIbLb1EE, .-_ZNSt6vectorImSaImEE19_S_nothrow_relocateESt17integral_constantIbLb1EE
	.section	.rodata
.LC16:
	.string	"vector::_M_realloc_insert"
	.section	.text._ZNSt6vectorImSaImEE17_M_realloc_insertIJRmEEEvN9__gnu_cxx17__normal_iteratorIPmS1_EEDpOT_,"axG",@progbits,_ZNSt6vectorImSaImEE17_M_realloc_insertIJRmEEEvN9__gnu_cxx17__normal_iteratorIPmS1_EEDpOT_,comdat
	.align 2
	.weak	_ZNSt6vectorImSaImEE17_M_realloc_insertIJRmEEEvN9__gnu_cxx17__normal_iteratorIPmS1_EEDpOT_
	.type	_ZNSt6vectorImSaImEE17_M_realloc_insertIJRmEEEvN9__gnu_cxx17__normal_iteratorIPmS1_EEDpOT_, @function
_ZNSt6vectorImSaImEE17_M_realloc_insertIJRmEEEvN9__gnu_cxx17__normal_iteratorIPmS1_EEDpOT_:
.LFB2677:
	.cfi_startproc
	.cfi_personality 0x9b,DW.ref.__gxx_personality_v0
	.cfi_lsda 0x1b,.LLSDA2677
	pushq	%rbp
	.cfi_def_cfa_offset 16
	.cfi_offset 6, -16
	movq	%rsp, %rbp
	.cfi_def_cfa_register 6
	pushq	%rbx
	subq	$104, %rsp
	.cfi_offset 3, -24
	movq	%rdi, -88(%rbp)
	movq	%rsi, -96(%rbp)
	movq	%rdx, -104(%rbp)
	movq	-88(%rbp), %rax
	leaq	.LC16(%rip), %rdx
	movl	$1, %esi
	movq	%rax, %rdi
.LEHB3:
	call	_ZNKSt6vectorImSaImEE12_M_check_lenEmPKc
	movq	%rax, -32(%rbp)
	movq	-88(%rbp), %rax
	movq	(%rax), %rax
	movq	%rax, -40(%rbp)
	movq	-88(%rbp), %rax
	movq	8(%rax), %rax
	movq	%rax, -48(%rbp)
	movq	-88(%rbp), %rax
	movq	%rax, %rdi
	call	_ZNSt6vectorImSaImEE5beginEv
	movq	%rax, -72(%rbp)
	leaq	-72(%rbp), %rdx
	leaq	-96(%rbp), %rax
	movq	%rdx, %rsi
	movq	%rax, %rdi
	call	_ZN9__gnu_cxxmiIPmSt6vectorImSaImEEEENS_17__normal_iteratorIT_T0_E15difference_typeERKS8_SB_
	movq	%rax, -56(%rbp)
	movq	-88(%rbp), %rax
	movq	-32(%rbp), %rdx
	movq	%rdx, %rsi
	movq	%rax, %rdi
	call	_ZNSt12_Vector_baseImSaImEE11_M_allocateEm
.LEHE3:
	movq	%rax, -64(%rbp)
	movq	-64(%rbp), %rax
	movq	%rax, -24(%rbp)
	movq	-104(%rbp), %rax
	movq	%rax, %rdi
	call	_ZSt7forwardIRmEOT_RNSt16remove_referenceIS1_E4typeE
	movq	%rax, %rdx
	movq	-56(%rbp), %rax
	leaq	0(,%rax,8), %rcx
	movq	-64(%rbp), %rax
	addq	%rax, %rcx
	movq	-88(%rbp), %rax
	movq	%rcx, %rsi
	movq	%rax, %rdi
	call	_ZNSt16allocator_traitsISaImEE9constructImJRmEEEvRS0_PT_DpOT0_
	movq	$0, -24(%rbp)
	call	_ZNSt6vectorImSaImEE15_S_use_relocateEv
	testb	%al, %al
	je	.L127
	movq	-88(%rbp), %rax
	movq	%rax, %rdi
	call	_ZNSt12_Vector_baseImSaImEE19_M_get_Tp_allocatorEv
	movq	%rax, %rbx
	leaq	-96(%rbp), %rax
	movq	%rax, %rdi
	call	_ZNK9__gnu_cxx17__normal_iteratorIPmSt6vectorImSaImEEE4baseEv
	movq	(%rax), %rsi
	movq	-64(%rbp), %rdx
	movq	-40(%rbp), %rax
	movq	%rbx, %rcx
	movq	%rax, %rdi
	call	_ZNSt6vectorImSaImEE11_S_relocateEPmS2_S2_RS0_
	movq	%rax, -24(%rbp)
	addq	$8, -24(%rbp)
	movq	-88(%rbp), %rax
	movq	%rax, %rdi
	call	_ZNSt12_Vector_baseImSaImEE19_M_get_Tp_allocatorEv
	movq	%rax, %rbx
	leaq	-96(%rbp), %rax
	movq	%rax, %rdi
	call	_ZNK9__gnu_cxx17__normal_iteratorIPmSt6vectorImSaImEEE4baseEv
	movq	(%rax), %rax
	movq	-24(%rbp), %rdx
	movq	-48(%rbp), %rsi
	movq	%rbx, %rcx
	movq	%rax, %rdi
	call	_ZNSt6vectorImSaImEE11_S_relocateEPmS2_S2_RS0_
	movq	%rax, -24(%rbp)
	jmp	.L128
.L127:
	movq	-88(%rbp), %rax
	movq	%rax, %rdi
	call	_ZNSt12_Vector_baseImSaImEE19_M_get_Tp_allocatorEv
	movq	%rax, %rbx
	leaq	-96(%rbp), %rax
	movq	%rax, %rdi
	call	_ZNK9__gnu_cxx17__normal_iteratorIPmSt6vectorImSaImEEE4baseEv
	movq	(%rax), %rsi
	movq	-64(%rbp), %rdx
	movq	-40(%rbp), %rax
	movq	%rbx, %rcx
	movq	%rax, %rdi
.LEHB4:
	call	_ZSt34__uninitialized_move_if_noexcept_aIPmS0_SaImEET0_T_S3_S2_RT1_
	movq	%rax, -24(%rbp)
	addq	$8, -24(%rbp)
	movq	-88(%rbp), %rax
	movq	%rax, %rdi
	call	_ZNSt12_Vector_baseImSaImEE19_M_get_Tp_allocatorEv
	movq	%rax, %rbx
	leaq	-96(%rbp), %rax
	movq	%rax, %rdi
	call	_ZNK9__gnu_cxx17__normal_iteratorIPmSt6vectorImSaImEEE4baseEv
	movq	(%rax), %rax
	movq	-24(%rbp), %rdx
	movq	-48(%rbp), %rsi
	movq	%rbx, %rcx
	movq	%rax, %rdi
	call	_ZSt34__uninitialized_move_if_noexcept_aIPmS0_SaImEET0_T_S3_S2_RT1_
.LEHE4:
	movq	%rax, -24(%rbp)
.L128:
	call	_ZNSt6vectorImSaImEE15_S_use_relocateEv
	xorl	$1, %eax
	testb	%al, %al
	je	.L129
	movq	-88(%rbp), %rax
	movq	%rax, %rdi
	call	_ZNSt12_Vector_baseImSaImEE19_M_get_Tp_allocatorEv
	movq	%rax, %rdx
	movq	-48(%rbp), %rcx
	movq	-40(%rbp), %rax
	movq	%rcx, %rsi
	movq	%rax, %rdi
.LEHB5:
	call	_ZSt8_DestroyIPmmEvT_S1_RSaIT0_E
.L129:
	movq	-88(%rbp), %rax
	movq	-88(%rbp), %rdx
	movq	16(%rdx), %rdx
	subq	-40(%rbp), %rdx
	sarq	$3, %rdx
	movq	-40(%rbp), %rcx
	movq	%rcx, %rsi
	movq	%rax, %rdi
	call	_ZNSt12_Vector_baseImSaImEE13_M_deallocateEPmm
.LEHE5:
	movq	-88(%rbp), %rax
	movq	-64(%rbp), %rdx
	movq	%rdx, (%rax)
	movq	-88(%rbp), %rax
	movq	-24(%rbp), %rdx
	movq	%rdx, 8(%rax)
	movq	-32(%rbp), %rax
	leaq	0(,%rax,8), %rdx
	movq	-64(%rbp), %rax
	addq	%rax, %rdx
	movq	-88(%rbp), %rax
	movq	%rdx, 16(%rax)
	jmp	.L136
.L134:
	movq	%rax, %rdi
	call	__cxa_begin_catch@PLT
	cmpq	$0, -24(%rbp)
	jne	.L131
	movq	-56(%rbp), %rax
	leaq	0(,%rax,8), %rdx
	movq	-64(%rbp), %rax
	addq	%rax, %rdx
	movq	-88(%rbp), %rax
	movq	%rdx, %rsi
	movq	%rax, %rdi
	call	_ZNSt16allocator_traitsISaImEE7destroyImEEvRS0_PT_
	jmp	.L132
.L131:
	movq	-88(%rbp), %rax
	movq	%rax, %rdi
	call	_ZNSt12_Vector_baseImSaImEE19_M_get_Tp_allocatorEv
	movq	%rax, %rdx
	movq	-24(%rbp), %rcx
	movq	-64(%rbp), %rax
	movq	%rcx, %rsi
	movq	%rax, %rdi
.LEHB6:
	call	_ZSt8_DestroyIPmmEvT_S1_RSaIT0_E
.L132:
	movq	-88(%rbp), %rax
	movq	-32(%rbp), %rdx
	movq	-64(%rbp), %rcx
	movq	%rcx, %rsi
	movq	%rax, %rdi
	call	_ZNSt12_Vector_baseImSaImEE13_M_deallocateEPmm
	call	__cxa_rethrow@PLT
.LEHE6:
.L135:
	movq	%rax, %rbx
	call	__cxa_end_catch@PLT
	movq	%rbx, %rax
	movq	%rax, %rdi
.LEHB7:
	call	_Unwind_Resume@PLT
.LEHE7:
.L136:
	movq	-8(%rbp), %rbx
	leave
	.cfi_def_cfa 7, 8
	ret
	.cfi_endproc
.LFE2677:
	.section	.gcc_except_table
	.align 4
.LLSDA2677:
	.byte	0xff
	.byte	0x9b
	.uleb128 .LLSDATT2677-.LLSDATTD2677
.LLSDATTD2677:
	.byte	0x1
	.uleb128 .LLSDACSE2677-.LLSDACSB2677
.LLSDACSB2677:
	.uleb128 .LEHB3-.LFB2677
	.uleb128 .LEHE3-.LEHB3
	.uleb128 0
	.uleb128 0
	.uleb128 .LEHB4-.LFB2677
	.uleb128 .LEHE4-.LEHB4
	.uleb128 .L134-.LFB2677
	.uleb128 0x1
	.uleb128 .LEHB5-.LFB2677
	.uleb128 .LEHE5-.LEHB5
	.uleb128 0
	.uleb128 0
	.uleb128 .LEHB6-.LFB2677
	.uleb128 .LEHE6-.LEHB6
	.uleb128 .L135-.LFB2677
	.uleb128 0
	.uleb128 .LEHB7-.LFB2677
	.uleb128 .LEHE7-.LEHB7
	.uleb128 0
	.uleb128 0
.LLSDACSE2677:
	.byte	0x1
	.byte	0
	.align 4
	.long	0

.LLSDATT2677:
	.section	.text._ZNSt6vectorImSaImEE17_M_realloc_insertIJRmEEEvN9__gnu_cxx17__normal_iteratorIPmS1_EEDpOT_,"axG",@progbits,_ZNSt6vectorImSaImEE17_M_realloc_insertIJRmEEEvN9__gnu_cxx17__normal_iteratorIPmS1_EEDpOT_,comdat
	.size	_ZNSt6vectorImSaImEE17_M_realloc_insertIJRmEEEvN9__gnu_cxx17__normal_iteratorIPmS1_EEDpOT_, .-_ZNSt6vectorImSaImEE17_M_realloc_insertIJRmEEEvN9__gnu_cxx17__normal_iteratorIPmS1_EEDpOT_
	.section	.text._ZNK9__gnu_cxx17__normal_iteratorIPmSt6vectorImSaImEEEmiEl,"axG",@progbits,_ZNK9__gnu_cxx17__normal_iteratorIPmSt6vectorImSaImEEEmiEl,comdat
	.align 2
	.weak	_ZNK9__gnu_cxx17__normal_iteratorIPmSt6vectorImSaImEEEmiEl
	.type	_ZNK9__gnu_cxx17__normal_iteratorIPmSt6vectorImSaImEEEmiEl, @function
_ZNK9__gnu_cxx17__normal_iteratorIPmSt6vectorImSaImEEEmiEl:
.LFB2681:
	.cfi_startproc
	pushq	%rbp
	.cfi_def_cfa_offset 16
	.cfi_offset 6, -16
	movq	%rsp, %rbp
	.cfi_def_cfa_register 6
	subq	$32, %rsp
	movq	%rdi, -24(%rbp)
	movq	%rsi, -32(%rbp)
	movq	-24(%rbp), %rax
	movq	(%rax), %rdx
	movq	-32(%rbp), %rax
	salq	$3, %rax
	negq	%rax
	addq	%rdx, %rax
	movq	%rax, -8(%rbp)
	leaq	-8(%rbp), %rdx
	leaq	-16(%rbp), %rax
	movq	%rdx, %rsi
	movq	%rax, %rdi
	call	_ZN9__gnu_cxx17__normal_iteratorIPmSt6vectorImSaImEEEC1ERKS1_
	movq	-16(%rbp), %rax
	leave
	.cfi_def_cfa 7, 8
	ret
	.cfi_endproc
.LFE2681:
	.size	_ZNK9__gnu_cxx17__normal_iteratorIPmSt6vectorImSaImEEEmiEl, .-_ZNK9__gnu_cxx17__normal_iteratorIPmSt6vectorImSaImEEEmiEl
	.section	.text._ZNSaIdEC2Ev,"axG",@progbits,_ZNSaIdEC5Ev,comdat
	.align 2
	.weak	_ZNSaIdEC2Ev
	.type	_ZNSaIdEC2Ev, @function
_ZNSaIdEC2Ev:
.LFB2683:
	.cfi_startproc
	pushq	%rbp
	.cfi_def_cfa_offset 16
	.cfi_offset 6, -16
	movq	%rsp, %rbp
	.cfi_def_cfa_register 6
	subq	$16, %rsp
	movq	%rdi, -8(%rbp)
	movq	-8(%rbp), %rax
	movq	%rax, %rdi
	call	_ZN9__gnu_cxx13new_allocatorIdEC2Ev
	nop
	leave
	.cfi_def_cfa 7, 8
	ret
	.cfi_endproc
.LFE2683:
	.size	_ZNSaIdEC2Ev, .-_ZNSaIdEC2Ev
	.weak	_ZNSaIdEC1Ev
	.set	_ZNSaIdEC1Ev,_ZNSaIdEC2Ev
	.section	.text._ZNSt12_Vector_baseIdSaIdEE17_Vector_impl_dataC2Ev,"axG",@progbits,_ZNSt12_Vector_baseIdSaIdEE17_Vector_impl_dataC5Ev,comdat
	.align 2
	.weak	_ZNSt12_Vector_baseIdSaIdEE17_Vector_impl_dataC2Ev
	.type	_ZNSt12_Vector_baseIdSaIdEE17_Vector_impl_dataC2Ev, @function
_ZNSt12_Vector_baseIdSaIdEE17_Vector_impl_dataC2Ev:
.LFB2686:
	.cfi_startproc
	pushq	%rbp
	.cfi_def_cfa_offset 16
	.cfi_offset 6, -16
	movq	%rsp, %rbp
	.cfi_def_cfa_register 6
	movq	%rdi, -8(%rbp)
	movq	-8(%rbp), %rax
	movq	$0, (%rax)
	movq	-8(%rbp), %rax
	movq	$0, 8(%rax)
	movq	-8(%rbp), %rax
	movq	$0, 16(%rax)
	nop
	popq	%rbp
	.cfi_def_cfa 7, 8
	ret
	.cfi_endproc
.LFE2686:
	.size	_ZNSt12_Vector_baseIdSaIdEE17_Vector_impl_dataC2Ev, .-_ZNSt12_Vector_baseIdSaIdEE17_Vector_impl_dataC2Ev
	.weak	_ZNSt12_Vector_baseIdSaIdEE17_Vector_impl_dataC1Ev
	.set	_ZNSt12_Vector_baseIdSaIdEE17_Vector_impl_dataC1Ev,_ZNSt12_Vector_baseIdSaIdEE17_Vector_impl_dataC2Ev
	.section	.text._ZN9__gnu_cxx13new_allocatorIdED2Ev,"axG",@progbits,_ZN9__gnu_cxx13new_allocatorIdED5Ev,comdat
	.align 2
	.weak	_ZN9__gnu_cxx13new_allocatorIdED2Ev
	.type	_ZN9__gnu_cxx13new_allocatorIdED2Ev, @function
_ZN9__gnu_cxx13new_allocatorIdED2Ev:
.LFB2689:
	.cfi_startproc
	pushq	%rbp
	.cfi_def_cfa_offset 16
	.cfi_offset 6, -16
	movq	%rsp, %rbp
	.cfi_def_cfa_register 6
	movq	%rdi, -8(%rbp)
	nop
	popq	%rbp
	.cfi_def_cfa 7, 8
	ret
	.cfi_endproc
.LFE2689:
	.size	_ZN9__gnu_cxx13new_allocatorIdED2Ev, .-_ZN9__gnu_cxx13new_allocatorIdED2Ev
	.weak	_ZN9__gnu_cxx13new_allocatorIdED1Ev
	.set	_ZN9__gnu_cxx13new_allocatorIdED1Ev,_ZN9__gnu_cxx13new_allocatorIdED2Ev
	.section	.text._ZNSt12_Vector_baseIdSaIdEE13_M_deallocateEPdm,"axG",@progbits,_ZNSt12_Vector_baseIdSaIdEE13_M_deallocateEPdm,comdat
	.align 2
	.weak	_ZNSt12_Vector_baseIdSaIdEE13_M_deallocateEPdm
	.type	_ZNSt12_Vector_baseIdSaIdEE13_M_deallocateEPdm, @function
_ZNSt12_Vector_baseIdSaIdEE13_M_deallocateEPdm:
.LFB2691:
	.cfi_startproc
	pushq	%rbp
	.cfi_def_cfa_offset 16
	.cfi_offset 6, -16
	movq	%rsp, %rbp
	.cfi_def_cfa_register 6
	subq	$32, %rsp
	movq	%rdi, -8(%rbp)
	movq	%rsi, -16(%rbp)
	movq	%rdx, -24(%rbp)
	cmpq	$0, -16(%rbp)
	je	.L144
	movq	-8(%rbp), %rax
	movq	-24(%rbp), %rdx
	movq	-16(%rbp), %rcx
	movq	%rcx, %rsi
	movq	%rax, %rdi
	call	_ZNSt16allocator_traitsISaIdEE10deallocateERS0_Pdm
.L144:
	nop
	leave
	.cfi_def_cfa 7, 8
	ret
	.cfi_endproc
.LFE2691:
	.size	_ZNSt12_Vector_baseIdSaIdEE13_M_deallocateEPdm, .-_ZNSt12_Vector_baseIdSaIdEE13_M_deallocateEPdm
	.section	.text._ZNSt12_Vector_baseIdSaIdEE19_M_get_Tp_allocatorEv,"axG",@progbits,_ZNSt12_Vector_baseIdSaIdEE19_M_get_Tp_allocatorEv,comdat
	.align 2
	.weak	_ZNSt12_Vector_baseIdSaIdEE19_M_get_Tp_allocatorEv
	.type	_ZNSt12_Vector_baseIdSaIdEE19_M_get_Tp_allocatorEv, @function
_ZNSt12_Vector_baseIdSaIdEE19_M_get_Tp_allocatorEv:
.LFB2692:
	.cfi_startproc
	pushq	%rbp
	.cfi_def_cfa_offset 16
	.cfi_offset 6, -16
	movq	%rsp, %rbp
	.cfi_def_cfa_register 6
	movq	%rdi, -8(%rbp)
	movq	-8(%rbp), %rax
	popq	%rbp
	.cfi_def_cfa 7, 8
	ret
	.cfi_endproc
.LFE2692:
	.size	_ZNSt12_Vector_baseIdSaIdEE19_M_get_Tp_allocatorEv, .-_ZNSt12_Vector_baseIdSaIdEE19_M_get_Tp_allocatorEv
	.section	.text._ZSt8_DestroyIPddEvT_S1_RSaIT0_E,"axG",@progbits,_ZSt8_DestroyIPddEvT_S1_RSaIT0_E,comdat
	.weak	_ZSt8_DestroyIPddEvT_S1_RSaIT0_E
	.type	_ZSt8_DestroyIPddEvT_S1_RSaIT0_E, @function
_ZSt8_DestroyIPddEvT_S1_RSaIT0_E:
.LFB2693:
	.cfi_startproc
	pushq	%rbp
	.cfi_def_cfa_offset 16
	.cfi_offset 6, -16
	movq	%rsp, %rbp
	.cfi_def_cfa_register 6
	subq	$32, %rsp
	movq	%rdi, -8(%rbp)
	movq	%rsi, -16(%rbp)
	movq	%rdx, -24(%rbp)
	movq	-16(%rbp), %rdx
	movq	-8(%rbp), %rax
	movq	%rdx, %rsi
	movq	%rax, %rdi
	call	_ZSt8_DestroyIPdEvT_S1_
	nop
	leave
	.cfi_def_cfa 7, 8
	ret
	.cfi_endproc
.LFE2693:
	.size	_ZSt8_DestroyIPddEvT_S1_RSaIT0_E, .-_ZSt8_DestroyIPddEvT_S1_RSaIT0_E
	.section	.text._ZN9__gnu_cxx17__normal_iteratorIPmSt6vectorImSaImEEEC2ERKS1_,"axG",@progbits,_ZN9__gnu_cxx17__normal_iteratorIPmSt6vectorImSaImEEEC5ERKS1_,comdat
	.align 2
	.weak	_ZN9__gnu_cxx17__normal_iteratorIPmSt6vectorImSaImEEEC2ERKS1_
	.type	_ZN9__gnu_cxx17__normal_iteratorIPmSt6vectorImSaImEEEC2ERKS1_, @function
_ZN9__gnu_cxx17__normal_iteratorIPmSt6vectorImSaImEEEC2ERKS1_:
.LFB2695:
	.cfi_startproc
	pushq	%rbp
	.cfi_def_cfa_offset 16
	.cfi_offset 6, -16
	movq	%rsp, %rbp
	.cfi_def_cfa_register 6
	movq	%rdi, -8(%rbp)
	movq	%rsi, -16(%rbp)
	movq	-16(%rbp), %rax
	movq	(%rax), %rdx
	movq	-8(%rbp), %rax
	movq	%rdx, (%rax)
	nop
	popq	%rbp
	.cfi_def_cfa 7, 8
	ret
	.cfi_endproc
.LFE2695:
	.size	_ZN9__gnu_cxx17__normal_iteratorIPmSt6vectorImSaImEEEC2ERKS1_, .-_ZN9__gnu_cxx17__normal_iteratorIPmSt6vectorImSaImEEEC2ERKS1_
	.weak	_ZN9__gnu_cxx17__normal_iteratorIPmSt6vectorImSaImEEEC1ERKS1_
	.set	_ZN9__gnu_cxx17__normal_iteratorIPmSt6vectorImSaImEEEC1ERKS1_,_ZN9__gnu_cxx17__normal_iteratorIPmSt6vectorImSaImEEEC2ERKS1_
	.section	.text._ZNK9__gnu_cxx17__normal_iteratorIPmSt6vectorImSaImEEE4baseEv,"axG",@progbits,_ZNK9__gnu_cxx17__normal_iteratorIPmSt6vectorImSaImEEE4baseEv,comdat
	.align 2
	.weak	_ZNK9__gnu_cxx17__normal_iteratorIPmSt6vectorImSaImEEE4baseEv
	.type	_ZNK9__gnu_cxx17__normal_iteratorIPmSt6vectorImSaImEEE4baseEv, @function
_ZNK9__gnu_cxx17__normal_iteratorIPmSt6vectorImSaImEEE4baseEv:
.LFB2697:
	.cfi_startproc
	pushq	%rbp
	.cfi_def_cfa_offset 16
	.cfi_offset 6, -16
	movq	%rsp, %rbp
	.cfi_def_cfa_register 6
	movq	%rdi, -8(%rbp)
	movq	-8(%rbp), %rax
	popq	%rbp
	.cfi_def_cfa 7, 8
	ret
	.cfi_endproc
.LFE2697:
	.size	_ZNK9__gnu_cxx17__normal_iteratorIPmSt6vectorImSaImEEE4baseEv, .-_ZNK9__gnu_cxx17__normal_iteratorIPmSt6vectorImSaImEEE4baseEv
	.section	.text._ZSt7forwardIdEOT_RNSt16remove_referenceIS0_E4typeE,"axG",@progbits,_ZSt7forwardIdEOT_RNSt16remove_referenceIS0_E4typeE,comdat
	.weak	_ZSt7forwardIdEOT_RNSt16remove_referenceIS0_E4typeE
	.type	_ZSt7forwardIdEOT_RNSt16remove_referenceIS0_E4typeE, @function
_ZSt7forwardIdEOT_RNSt16remove_referenceIS0_E4typeE:
.LFB2698:
	.cfi_startproc
	pushq	%rbp
	.cfi_def_cfa_offset 16
	.cfi_offset 6, -16
	movq	%rsp, %rbp
	.cfi_def_cfa_register 6
	movq	%rdi, -8(%rbp)
	movq	-8(%rbp), %rax
	popq	%rbp
	.cfi_def_cfa 7, 8
	ret
	.cfi_endproc
.LFE2698:
	.size	_ZSt7forwardIdEOT_RNSt16remove_referenceIS0_E4typeE, .-_ZSt7forwardIdEOT_RNSt16remove_referenceIS0_E4typeE
	.section	.text._ZNSt16allocator_traitsISaIdEE9constructIdJdEEEvRS0_PT_DpOT0_,"axG",@progbits,_ZNSt16allocator_traitsISaIdEE9constructIdJdEEEvRS0_PT_DpOT0_,comdat
	.weak	_ZNSt16allocator_traitsISaIdEE9constructIdJdEEEvRS0_PT_DpOT0_
	.type	_ZNSt16allocator_traitsISaIdEE9constructIdJdEEEvRS0_PT_DpOT0_, @function
_ZNSt16allocator_traitsISaIdEE9constructIdJdEEEvRS0_PT_DpOT0_:
.LFB2699:
	.cfi_startproc
	pushq	%rbp
	.cfi_def_cfa_offset 16
	.cfi_offset 6, -16
	movq	%rsp, %rbp
	.cfi_def_cfa_register 6
	subq	$32, %rsp
	movq	%rdi, -8(%rbp)
	movq	%rsi, -16(%rbp)
	movq	%rdx, -24(%rbp)
	movq	-24(%rbp), %rax
	movq	%rax, %rdi
	call	_ZSt7forwardIdEOT_RNSt16remove_referenceIS0_E4typeE
	movq	%rax, %rdx
	movq	-16(%rbp), %rcx
	movq	-8(%rbp), %rax
	movq	%rcx, %rsi
	movq	%rax, %rdi
	call	_ZN9__gnu_cxx13new_allocatorIdE9constructIdJdEEEvPT_DpOT0_
	nop
	leave
	.cfi_def_cfa 7, 8
	ret
	.cfi_endproc
.LFE2699:
	.size	_ZNSt16allocator_traitsISaIdEE9constructIdJdEEEvRS0_PT_DpOT0_, .-_ZNSt16allocator_traitsISaIdEE9constructIdJdEEEvRS0_PT_DpOT0_
	.section	.text._ZNSt6vectorIdSaIdEE3endEv,"axG",@progbits,_ZNSt6vectorIdSaIdEE3endEv,comdat
	.align 2
	.weak	_ZNSt6vectorIdSaIdEE3endEv
	.type	_ZNSt6vectorIdSaIdEE3endEv, @function
_ZNSt6vectorIdSaIdEE3endEv:
.LFB2700:
	.cfi_startproc
	pushq	%rbp
	.cfi_def_cfa_offset 16
	.cfi_offset 6, -16
	movq	%rsp, %rbp
	.cfi_def_cfa_register 6
	subq	$32, %rsp
	movq	%rdi, -24(%rbp)
	movq	-24(%rbp), %rax
	leaq	8(%rax), %rdx
	leaq	-8(%rbp), %rax
	movq	%rdx, %rsi
	movq	%rax, %rdi
	call	_ZN9__gnu_cxx17__normal_iteratorIPdSt6vectorIdSaIdEEEC1ERKS1_
	movq	-8(%rbp), %rax
	leave
	.cfi_def_cfa 7, 8
	ret
	.cfi_endproc
.LFE2700:
	.size	_ZNSt6vectorIdSaIdEE3endEv, .-_ZNSt6vectorIdSaIdEE3endEv
	.section	.text._ZNSt6vectorIdSaIdEE15_S_use_relocateEv,"axG",@progbits,_ZNSt6vectorIdSaIdEE15_S_use_relocateEv,comdat
	.weak	_ZNSt6vectorIdSaIdEE15_S_use_relocateEv
	.type	_ZNSt6vectorIdSaIdEE15_S_use_relocateEv, @function
_ZNSt6vectorIdSaIdEE15_S_use_relocateEv:
.LFB2702:
	.cfi_startproc
	pushq	%rbp
	.cfi_def_cfa_offset 16
	.cfi_offset 6, -16
	movq	%rsp, %rbp
	.cfi_def_cfa_register 6
	subq	$16, %rsp
	call	_ZNSt6vectorIdSaIdEE19_S_nothrow_relocateESt17integral_constantIbLb1EE
	leave
	.cfi_def_cfa 7, 8
	ret
	.cfi_endproc
.LFE2702:
	.size	_ZNSt6vectorIdSaIdEE15_S_use_relocateEv, .-_ZNSt6vectorIdSaIdEE15_S_use_relocateEv
	.section	.text._ZNSt6vectorIdSaIdEE19_S_nothrow_relocateESt17integral_constantIbLb1EE,"axG",@progbits,_ZNSt6vectorIdSaIdEE19_S_nothrow_relocateESt17integral_constantIbLb1EE,comdat
	.weak	_ZNSt6vectorIdSaIdEE19_S_nothrow_relocateESt17integral_constantIbLb1EE
	.type	_ZNSt6vectorIdSaIdEE19_S_nothrow_relocateESt17integral_constantIbLb1EE, @function
_ZNSt6vectorIdSaIdEE19_S_nothrow_relocateESt17integral_constantIbLb1EE:
.LFB2703:
	.cfi_startproc
	pushq	%rbp
	.cfi_def_cfa_offset 16
	.cfi_offset 6, -16
	movq	%rsp, %rbp
	.cfi_def_cfa_register 6
	movl	$1, %eax
	popq	%rbp
	.cfi_def_cfa 7, 8
	ret
	.cfi_endproc
.LFE2703:
	.size	_ZNSt6vectorIdSaIdEE19_S_nothrow_relocateESt17integral_constantIbLb1EE, .-_ZNSt6vectorIdSaIdEE19_S_nothrow_relocateESt17integral_constantIbLb1EE
	.section	.text._ZNSt6vectorIdSaIdEE17_M_realloc_insertIJdEEEvN9__gnu_cxx17__normal_iteratorIPdS1_EEDpOT_,"axG",@progbits,_ZNSt6vectorIdSaIdEE17_M_realloc_insertIJdEEEvN9__gnu_cxx17__normal_iteratorIPdS1_EEDpOT_,comdat
	.align 2
	.weak	_ZNSt6vectorIdSaIdEE17_M_realloc_insertIJdEEEvN9__gnu_cxx17__normal_iteratorIPdS1_EEDpOT_
	.type	_ZNSt6vectorIdSaIdEE17_M_realloc_insertIJdEEEvN9__gnu_cxx17__normal_iteratorIPdS1_EEDpOT_, @function
_ZNSt6vectorIdSaIdEE17_M_realloc_insertIJdEEEvN9__gnu_cxx17__normal_iteratorIPdS1_EEDpOT_:
.LFB2701:
	.cfi_startproc
	.cfi_personality 0x9b,DW.ref.__gxx_personality_v0
	.cfi_lsda 0x1b,.LLSDA2701
	pushq	%rbp
	.cfi_def_cfa_offset 16
	.cfi_offset 6, -16
	movq	%rsp, %rbp
	.cfi_def_cfa_register 6
	pushq	%rbx
	subq	$104, %rsp
	.cfi_offset 3, -24
	movq	%rdi, -88(%rbp)
	movq	%rsi, -96(%rbp)
	movq	%rdx, -104(%rbp)
	movq	-88(%rbp), %rax
	leaq	.LC16(%rip), %rdx
	movl	$1, %esi
	movq	%rax, %rdi
.LEHB8:
	call	_ZNKSt6vectorIdSaIdEE12_M_check_lenEmPKc
	movq	%rax, -32(%rbp)
	movq	-88(%rbp), %rax
	movq	(%rax), %rax
	movq	%rax, -40(%rbp)
	movq	-88(%rbp), %rax
	movq	8(%rax), %rax
	movq	%rax, -48(%rbp)
	movq	-88(%rbp), %rax
	movq	%rax, %rdi
	call	_ZNSt6vectorIdSaIdEE5beginEv
	movq	%rax, -72(%rbp)
	leaq	-72(%rbp), %rdx
	leaq	-96(%rbp), %rax
	movq	%rdx, %rsi
	movq	%rax, %rdi
	call	_ZN9__gnu_cxxmiIPdSt6vectorIdSaIdEEEENS_17__normal_iteratorIT_T0_E15difference_typeERKS8_SB_
	movq	%rax, -56(%rbp)
	movq	-88(%rbp), %rax
	movq	-32(%rbp), %rdx
	movq	%rdx, %rsi
	movq	%rax, %rdi
	call	_ZNSt12_Vector_baseIdSaIdEE11_M_allocateEm
.LEHE8:
	movq	%rax, -64(%rbp)
	movq	-64(%rbp), %rax
	movq	%rax, -24(%rbp)
	movq	-104(%rbp), %rax
	movq	%rax, %rdi
	call	_ZSt7forwardIdEOT_RNSt16remove_referenceIS0_E4typeE
	movq	%rax, %rdx
	movq	-56(%rbp), %rax
	leaq	0(,%rax,8), %rcx
	movq	-64(%rbp), %rax
	addq	%rax, %rcx
	movq	-88(%rbp), %rax
	movq	%rcx, %rsi
	movq	%rax, %rdi
	call	_ZNSt16allocator_traitsISaIdEE9constructIdJdEEEvRS0_PT_DpOT0_
	movq	$0, -24(%rbp)
	call	_ZNSt6vectorIdSaIdEE15_S_use_relocateEv
	testb	%al, %al
	je	.L161
	movq	-88(%rbp), %rax
	movq	%rax, %rdi
	call	_ZNSt12_Vector_baseIdSaIdEE19_M_get_Tp_allocatorEv
	movq	%rax, %rbx
	leaq	-96(%rbp), %rax
	movq	%rax, %rdi
	call	_ZNK9__gnu_cxx17__normal_iteratorIPdSt6vectorIdSaIdEEE4baseEv
	movq	(%rax), %rsi
	movq	-64(%rbp), %rdx
	movq	-40(%rbp), %rax
	movq	%rbx, %rcx
	movq	%rax, %rdi
	call	_ZNSt6vectorIdSaIdEE11_S_relocateEPdS2_S2_RS0_
	movq	%rax, -24(%rbp)
	addq	$8, -24(%rbp)
	movq	-88(%rbp), %rax
	movq	%rax, %rdi
	call	_ZNSt12_Vector_baseIdSaIdEE19_M_get_Tp_allocatorEv
	movq	%rax, %rbx
	leaq	-96(%rbp), %rax
	movq	%rax, %rdi
	call	_ZNK9__gnu_cxx17__normal_iteratorIPdSt6vectorIdSaIdEEE4baseEv
	movq	(%rax), %rax
	movq	-24(%rbp), %rdx
	movq	-48(%rbp), %rsi
	movq	%rbx, %rcx
	movq	%rax, %rdi
	call	_ZNSt6vectorIdSaIdEE11_S_relocateEPdS2_S2_RS0_
	movq	%rax, -24(%rbp)
	jmp	.L162
.L161:
	movq	-88(%rbp), %rax
	movq	%rax, %rdi
	call	_ZNSt12_Vector_baseIdSaIdEE19_M_get_Tp_allocatorEv
	movq	%rax, %rbx
	leaq	-96(%rbp), %rax
	movq	%rax, %rdi
	call	_ZNK9__gnu_cxx17__normal_iteratorIPdSt6vectorIdSaIdEEE4baseEv
	movq	(%rax), %rsi
	movq	-64(%rbp), %rdx
	movq	-40(%rbp), %rax
	movq	%rbx, %rcx
	movq	%rax, %rdi
.LEHB9:
	call	_ZSt34__uninitialized_move_if_noexcept_aIPdS0_SaIdEET0_T_S3_S2_RT1_
	movq	%rax, -24(%rbp)
	addq	$8, -24(%rbp)
	movq	-88(%rbp), %rax
	movq	%rax, %rdi
	call	_ZNSt12_Vector_baseIdSaIdEE19_M_get_Tp_allocatorEv
	movq	%rax, %rbx
	leaq	-96(%rbp), %rax
	movq	%rax, %rdi
	call	_ZNK9__gnu_cxx17__normal_iteratorIPdSt6vectorIdSaIdEEE4baseEv
	movq	(%rax), %rax
	movq	-24(%rbp), %rdx
	movq	-48(%rbp), %rsi
	movq	%rbx, %rcx
	movq	%rax, %rdi
	call	_ZSt34__uninitialized_move_if_noexcept_aIPdS0_SaIdEET0_T_S3_S2_RT1_
.LEHE9:
	movq	%rax, -24(%rbp)
.L162:
	call	_ZNSt6vectorIdSaIdEE15_S_use_relocateEv
	xorl	$1, %eax
	testb	%al, %al
	je	.L163
	movq	-88(%rbp), %rax
	movq	%rax, %rdi
	call	_ZNSt12_Vector_baseIdSaIdEE19_M_get_Tp_allocatorEv
	movq	%rax, %rdx
	movq	-48(%rbp), %rcx
	movq	-40(%rbp), %rax
	movq	%rcx, %rsi
	movq	%rax, %rdi
.LEHB10:
	call	_ZSt8_DestroyIPddEvT_S1_RSaIT0_E
.L163:
	movq	-88(%rbp), %rax
	movq	-88(%rbp), %rdx
	movq	16(%rdx), %rdx
	subq	-40(%rbp), %rdx
	sarq	$3, %rdx
	movq	-40(%rbp), %rcx
	movq	%rcx, %rsi
	movq	%rax, %rdi
	call	_ZNSt12_Vector_baseIdSaIdEE13_M_deallocateEPdm
.LEHE10:
	movq	-88(%rbp), %rax
	movq	-64(%rbp), %rdx
	movq	%rdx, (%rax)
	movq	-88(%rbp), %rax
	movq	-24(%rbp), %rdx
	movq	%rdx, 8(%rax)
	movq	-32(%rbp), %rax
	leaq	0(,%rax,8), %rdx
	movq	-64(%rbp), %rax
	addq	%rax, %rdx
	movq	-88(%rbp), %rax
	movq	%rdx, 16(%rax)
	jmp	.L170
.L168:
	movq	%rax, %rdi
	call	__cxa_begin_catch@PLT
	cmpq	$0, -24(%rbp)
	jne	.L165
	movq	-56(%rbp), %rax
	leaq	0(,%rax,8), %rdx
	movq	-64(%rbp), %rax
	addq	%rax, %rdx
	movq	-88(%rbp), %rax
	movq	%rdx, %rsi
	movq	%rax, %rdi
	call	_ZNSt16allocator_traitsISaIdEE7destroyIdEEvRS0_PT_
	jmp	.L166
.L165:
	movq	-88(%rbp), %rax
	movq	%rax, %rdi
	call	_ZNSt12_Vector_baseIdSaIdEE19_M_get_Tp_allocatorEv
	movq	%rax, %rdx
	movq	-24(%rbp), %rcx
	movq	-64(%rbp), %rax
	movq	%rcx, %rsi
	movq	%rax, %rdi
.LEHB11:
	call	_ZSt8_DestroyIPddEvT_S1_RSaIT0_E
.L166:
	movq	-88(%rbp), %rax
	movq	-32(%rbp), %rdx
	movq	-64(%rbp), %rcx
	movq	%rcx, %rsi
	movq	%rax, %rdi
	call	_ZNSt12_Vector_baseIdSaIdEE13_M_deallocateEPdm
	call	__cxa_rethrow@PLT
.LEHE11:
.L169:
	movq	%rax, %rbx
	call	__cxa_end_catch@PLT
	movq	%rbx, %rax
	movq	%rax, %rdi
.LEHB12:
	call	_Unwind_Resume@PLT
.LEHE12:
.L170:
	movq	-8(%rbp), %rbx
	leave
	.cfi_def_cfa 7, 8
	ret
	.cfi_endproc
.LFE2701:
	.section	.gcc_except_table
	.align 4
.LLSDA2701:
	.byte	0xff
	.byte	0x9b
	.uleb128 .LLSDATT2701-.LLSDATTD2701
.LLSDATTD2701:
	.byte	0x1
	.uleb128 .LLSDACSE2701-.LLSDACSB2701
.LLSDACSB2701:
	.uleb128 .LEHB8-.LFB2701
	.uleb128 .LEHE8-.LEHB8
	.uleb128 0
	.uleb128 0
	.uleb128 .LEHB9-.LFB2701
	.uleb128 .LEHE9-.LEHB9
	.uleb128 .L168-.LFB2701
	.uleb128 0x1
	.uleb128 .LEHB10-.LFB2701
	.uleb128 .LEHE10-.LEHB10
	.uleb128 0
	.uleb128 0
	.uleb128 .LEHB11-.LFB2701
	.uleb128 .LEHE11-.LEHB11
	.uleb128 .L169-.LFB2701
	.uleb128 0
	.uleb128 .LEHB12-.LFB2701
	.uleb128 .LEHE12-.LEHB12
	.uleb128 0
	.uleb128 0
.LLSDACSE2701:
	.byte	0x1
	.byte	0
	.align 4
	.long	0

.LLSDATT2701:
	.section	.text._ZNSt6vectorIdSaIdEE17_M_realloc_insertIJdEEEvN9__gnu_cxx17__normal_iteratorIPdS1_EEDpOT_,"axG",@progbits,_ZNSt6vectorIdSaIdEE17_M_realloc_insertIJdEEEvN9__gnu_cxx17__normal_iteratorIPdS1_EEDpOT_,comdat
	.size	_ZNSt6vectorIdSaIdEE17_M_realloc_insertIJdEEEvN9__gnu_cxx17__normal_iteratorIPdS1_EEDpOT_, .-_ZNSt6vectorIdSaIdEE17_M_realloc_insertIJdEEEvN9__gnu_cxx17__normal_iteratorIPdS1_EEDpOT_
	.section	.text._ZN9__gnu_cxx13new_allocatorImEC2Ev,"axG",@progbits,_ZN9__gnu_cxx13new_allocatorImEC5Ev,comdat
	.align 2
	.weak	_ZN9__gnu_cxx13new_allocatorImEC2Ev
	.type	_ZN9__gnu_cxx13new_allocatorImEC2Ev, @function
_ZN9__gnu_cxx13new_allocatorImEC2Ev:
.LFB2743:
	.cfi_startproc
	pushq	%rbp
	.cfi_def_cfa_offset 16
	.cfi_offset 6, -16
	movq	%rsp, %rbp
	.cfi_def_cfa_register 6
	movq	%rdi, -8(%rbp)
	nop
	popq	%rbp
	.cfi_def_cfa 7, 8
	ret
	.cfi_endproc
.LFE2743:
	.size	_ZN9__gnu_cxx13new_allocatorImEC2Ev, .-_ZN9__gnu_cxx13new_allocatorImEC2Ev
	.weak	_ZN9__gnu_cxx13new_allocatorImEC1Ev
	.set	_ZN9__gnu_cxx13new_allocatorImEC1Ev,_ZN9__gnu_cxx13new_allocatorImEC2Ev
	.section	.text._ZNSt16allocator_traitsISaImEE10deallocateERS0_Pmm,"axG",@progbits,_ZNSt16allocator_traitsISaImEE10deallocateERS0_Pmm,comdat
	.weak	_ZNSt16allocator_traitsISaImEE10deallocateERS0_Pmm
	.type	_ZNSt16allocator_traitsISaImEE10deallocateERS0_Pmm, @function
_ZNSt16allocator_traitsISaImEE10deallocateERS0_Pmm:
.LFB2745:
	.cfi_startproc
	pushq	%rbp
	.cfi_def_cfa_offset 16
	.cfi_offset 6, -16
	movq	%rsp, %rbp
	.cfi_def_cfa_register 6
	subq	$32, %rsp
	movq	%rdi, -8(%rbp)
	movq	%rsi, -16(%rbp)
	movq	%rdx, -24(%rbp)
	movq	-24(%rbp), %rdx
	movq	-16(%rbp), %rcx
	movq	-8(%rbp), %rax
	movq	%rcx, %rsi
	movq	%rax, %rdi
	call	_ZN9__gnu_cxx13new_allocatorImE10deallocateEPmm
	nop
	leave
	.cfi_def_cfa 7, 8
	ret
	.cfi_endproc
.LFE2745:
	.size	_ZNSt16allocator_traitsISaImEE10deallocateERS0_Pmm, .-_ZNSt16allocator_traitsISaImEE10deallocateERS0_Pmm
	.section	.text._ZSt8_DestroyIPmEvT_S1_,"axG",@progbits,_ZSt8_DestroyIPmEvT_S1_,comdat
	.weak	_ZSt8_DestroyIPmEvT_S1_
	.type	_ZSt8_DestroyIPmEvT_S1_, @function
_ZSt8_DestroyIPmEvT_S1_:
.LFB2746:
	.cfi_startproc
	pushq	%rbp
	.cfi_def_cfa_offset 16
	.cfi_offset 6, -16
	movq	%rsp, %rbp
	.cfi_def_cfa_register 6
	subq	$16, %rsp
	movq	%rdi, -8(%rbp)
	movq	%rsi, -16(%rbp)
	movq	-16(%rbp), %rdx
	movq	-8(%rbp), %rax
	movq	%rdx, %rsi
	movq	%rax, %rdi
	call	_ZNSt12_Destroy_auxILb1EE9__destroyIPmEEvT_S3_
	nop
	leave
	.cfi_def_cfa 7, 8
	ret
	.cfi_endproc
.LFE2746:
	.size	_ZSt8_DestroyIPmEvT_S1_, .-_ZSt8_DestroyIPmEvT_S1_
	.section	.text._ZN9__gnu_cxx13new_allocatorImE9constructImJRmEEEvPT_DpOT0_,"axG",@progbits,_ZN9__gnu_cxx13new_allocatorImE9constructImJRmEEEvPT_DpOT0_,comdat
	.align 2
	.weak	_ZN9__gnu_cxx13new_allocatorImE9constructImJRmEEEvPT_DpOT0_
	.type	_ZN9__gnu_cxx13new_allocatorImE9constructImJRmEEEvPT_DpOT0_, @function
_ZN9__gnu_cxx13new_allocatorImE9constructImJRmEEEvPT_DpOT0_:
.LFB2747:
	.cfi_startproc
	pushq	%rbp
	.cfi_def_cfa_offset 16
	.cfi_offset 6, -16
	movq	%rsp, %rbp
	.cfi_def_cfa_register 6
	pushq	%rbx
	subq	$40, %rsp
	.cfi_offset 3, -24
	movq	%rdi, -24(%rbp)
	movq	%rsi, -32(%rbp)
	movq	%rdx, -40(%rbp)
	movq	-40(%rbp), %rax
	movq	%rax, %rdi
	call	_ZSt7forwardIRmEOT_RNSt16remove_referenceIS1_E4typeE
	movq	(%rax), %rbx
	movq	-32(%rbp), %rax
	movq	%rax, %rsi
	movl	$8, %edi
	call	_ZnwmPv
	movq	%rbx, (%rax)
	nop
	movq	-8(%rbp), %rbx
	leave
	.cfi_def_cfa 7, 8
	ret
	.cfi_endproc
.LFE2747:
	.size	_ZN9__gnu_cxx13new_allocatorImE9constructImJRmEEEvPT_DpOT0_, .-_ZN9__gnu_cxx13new_allocatorImE9constructImJRmEEEvPT_DpOT0_
	.section	.text._ZNKSt6vectorImSaImEE12_M_check_lenEmPKc,"axG",@progbits,_ZNKSt6vectorImSaImEE12_M_check_lenEmPKc,comdat
	.align 2
	.weak	_ZNKSt6vectorImSaImEE12_M_check_lenEmPKc
	.type	_ZNKSt6vectorImSaImEE12_M_check_lenEmPKc, @function
_ZNKSt6vectorImSaImEE12_M_check_lenEmPKc:
.LFB2748:
	.cfi_startproc
	pushq	%rbp
	.cfi_def_cfa_offset 16
	.cfi_offset 6, -16
	movq	%rsp, %rbp
	.cfi_def_cfa_register 6
	pushq	%rbx
	subq	$56, %rsp
	.cfi_offset 3, -24
	movq	%rdi, -40(%rbp)
	movq	%rsi, -48(%rbp)
	movq	%rdx, -56(%rbp)
	movq	-40(%rbp), %rax
	movq	%rax, %rdi
	call	_ZNKSt6vectorImSaImEE8max_sizeEv
	movq	%rax, %rbx
	movq	-40(%rbp), %rax
	movq	%rax, %rdi
	call	_ZNKSt6vectorImSaImEE4sizeEv
	subq	%rax, %rbx
	movq	%rbx, %rdx
	movq	-48(%rbp), %rax
	cmpq	%rax, %rdx
	setb	%al
	testb	%al, %al
	je	.L176
	movq	-56(%rbp), %rax
	movq	%rax, %rdi
	call	_ZSt20__throw_length_errorPKc@PLT
.L176:
	movq	-40(%rbp), %rax
	movq	%rax, %rdi
	call	_ZNKSt6vectorImSaImEE4sizeEv
	movq	%rax, %rbx
	movq	-40(%rbp), %rax
	movq	%rax, %rdi
	call	_ZNKSt6vectorImSaImEE4sizeEv
	movq	%rax, -32(%rbp)
	leaq	-48(%rbp), %rdx
	leaq	-32(%rbp), %rax
	movq	%rdx, %rsi
	movq	%rax, %rdi
	call	_ZSt3maxImERKT_S2_S2_
	movq	(%rax), %rax
	addq	%rbx, %rax
	movq	%rax, -24(%rbp)
	movq	-40(%rbp), %rax
	movq	%rax, %rdi
	call	_ZNKSt6vectorImSaImEE4sizeEv
	cmpq	%rax, -24(%rbp)
	jb	.L177
	movq	-40(%rbp), %rax
	movq	%rax, %rdi
	call	_ZNKSt6vectorImSaImEE8max_sizeEv
	cmpq	%rax, -24(%rbp)
	jbe	.L178
.L177:
	movq	-40(%rbp), %rax
	movq	%rax, %rdi
	call	_ZNKSt6vectorImSaImEE8max_sizeEv
	jmp	.L179
.L178:
	movq	-24(%rbp), %rax
.L179:
	movq	-8(%rbp), %rbx
	leave
	.cfi_def_cfa 7, 8
	ret
	.cfi_endproc
.LFE2748:
	.size	_ZNKSt6vectorImSaImEE12_M_check_lenEmPKc, .-_ZNKSt6vectorImSaImEE12_M_check_lenEmPKc
	.section	.text._ZN9__gnu_cxxmiIPmSt6vectorImSaImEEEENS_17__normal_iteratorIT_T0_E15difference_typeERKS8_SB_,"axG",@progbits,_ZN9__gnu_cxxmiIPmSt6vectorImSaImEEEENS_17__normal_iteratorIT_T0_E15difference_typeERKS8_SB_,comdat
	.weak	_ZN9__gnu_cxxmiIPmSt6vectorImSaImEEEENS_17__normal_iteratorIT_T0_E15difference_typeERKS8_SB_
	.type	_ZN9__gnu_cxxmiIPmSt6vectorImSaImEEEENS_17__normal_iteratorIT_T0_E15difference_typeERKS8_SB_, @function
_ZN9__gnu_cxxmiIPmSt6vectorImSaImEEEENS_17__normal_iteratorIT_T0_E15difference_typeERKS8_SB_:
.LFB2749:
	.cfi_startproc
	pushq	%rbp
	.cfi_def_cfa_offset 16
	.cfi_offset 6, -16
	movq	%rsp, %rbp
	.cfi_def_cfa_register 6
	pushq	%rbx
	subq	$24, %rsp
	.cfi_offset 3, -24
	movq	%rdi, -24(%rbp)
	movq	%rsi, -32(%rbp)
	movq	-24(%rbp), %rax
	movq	%rax, %rdi
	call	_ZNK9__gnu_cxx17__normal_iteratorIPmSt6vectorImSaImEEE4baseEv
	movq	(%rax), %rbx
	movq	-32(%rbp), %rax
	movq	%rax, %rdi
	call	_ZNK9__gnu_cxx17__normal_iteratorIPmSt6vectorImSaImEEE4baseEv
	movq	(%rax), %rdx
	movq	%rbx, %rax
	subq	%rdx, %rax
	sarq	$3, %rax
	movq	-8(%rbp), %rbx
	leave
	.cfi_def_cfa 7, 8
	ret
	.cfi_endproc
.LFE2749:
	.size	_ZN9__gnu_cxxmiIPmSt6vectorImSaImEEEENS_17__normal_iteratorIT_T0_E15difference_typeERKS8_SB_, .-_ZN9__gnu_cxxmiIPmSt6vectorImSaImEEEENS_17__normal_iteratorIT_T0_E15difference_typeERKS8_SB_
	.section	.text._ZNSt12_Vector_baseImSaImEE11_M_allocateEm,"axG",@progbits,_ZNSt12_Vector_baseImSaImEE11_M_allocateEm,comdat
	.align 2
	.weak	_ZNSt12_Vector_baseImSaImEE11_M_allocateEm
	.type	_ZNSt12_Vector_baseImSaImEE11_M_allocateEm, @function
_ZNSt12_Vector_baseImSaImEE11_M_allocateEm:
.LFB2750:
	.cfi_startproc
	pushq	%rbp
	.cfi_def_cfa_offset 16
	.cfi_offset 6, -16
	movq	%rsp, %rbp
	.cfi_def_cfa_register 6
	subq	$16, %rsp
	movq	%rdi, -8(%rbp)
	movq	%rsi, -16(%rbp)
	cmpq	$0, -16(%rbp)
	je	.L184
	movq	-8(%rbp), %rax
	movq	-16(%rbp), %rdx
	movq	%rdx, %rsi
	movq	%rax, %rdi
	call	_ZNSt16allocator_traitsISaImEE8allocateERS0_m
	jmp	.L186
.L184:
	movl	$0, %eax
.L186:
	leave
	.cfi_def_cfa 7, 8
	ret
	.cfi_endproc
.LFE2750:
	.size	_ZNSt12_Vector_baseImSaImEE11_M_allocateEm, .-_ZNSt12_Vector_baseImSaImEE11_M_allocateEm
	.section	.text._ZNSt6vectorImSaImEE11_S_relocateEPmS2_S2_RS0_,"axG",@progbits,_ZNSt6vectorImSaImEE11_S_relocateEPmS2_S2_RS0_,comdat
	.weak	_ZNSt6vectorImSaImEE11_S_relocateEPmS2_S2_RS0_
	.type	_ZNSt6vectorImSaImEE11_S_relocateEPmS2_S2_RS0_, @function
_ZNSt6vectorImSaImEE11_S_relocateEPmS2_S2_RS0_:
.LFB2751:
	.cfi_startproc
	pushq	%rbp
	.cfi_def_cfa_offset 16
	.cfi_offset 6, -16
	movq	%rsp, %rbp
	.cfi_def_cfa_register 6
	subq	$32, %rsp
	movq	%rdi, -8(%rbp)
	movq	%rsi, -16(%rbp)
	movq	%rdx, -24(%rbp)
	movq	%rcx, -32(%rbp)
	movq	-32(%rbp), %rcx
	movq	-24(%rbp), %rdx
	movq	-16(%rbp), %rsi
	movq	-8(%rbp), %rax
	movq	%rax, %rdi
	call	_ZNSt6vectorImSaImEE14_S_do_relocateEPmS2_S2_RS0_St17integral_constantIbLb1EE
	leave
	.cfi_def_cfa 7, 8
	ret
	.cfi_endproc
.LFE2751:
	.size	_ZNSt6vectorImSaImEE11_S_relocateEPmS2_S2_RS0_, .-_ZNSt6vectorImSaImEE11_S_relocateEPmS2_S2_RS0_
	.section	.text._ZSt34__uninitialized_move_if_noexcept_aIPmS0_SaImEET0_T_S3_S2_RT1_,"axG",@progbits,_ZSt34__uninitialized_move_if_noexcept_aIPmS0_SaImEET0_T_S3_S2_RT1_,comdat
	.weak	_ZSt34__uninitialized_move_if_noexcept_aIPmS0_SaImEET0_T_S3_S2_RT1_
	.type	_ZSt34__uninitialized_move_if_noexcept_aIPmS0_SaImEET0_T_S3_S2_RT1_, @function
_ZSt34__uninitialized_move_if_noexcept_aIPmS0_SaImEET0_T_S3_S2_RT1_:
.LFB2752:
	.cfi_startproc
	pushq	%rbp
	.cfi_def_cfa_offset 16
	.cfi_offset 6, -16
	movq	%rsp, %rbp
	.cfi_def_cfa_register 6
	pushq	%rbx
	subq	$40, %rsp
	.cfi_offset 3, -24
	movq	%rdi, -24(%rbp)
	movq	%rsi, -32(%rbp)
	movq	%rdx, -40(%rbp)
	movq	%rcx, -48(%rbp)
	movq	-32(%rbp), %rax
	movq	%rax, %rdi
	call	_ZSt32__make_move_if_noexcept_iteratorImSt13move_iteratorIPmEET0_PT_
	movq	%rax, %rbx
	movq	-24(%rbp), %rax
	movq	%rax, %rdi
	call	_ZSt32__make_move_if_noexcept_iteratorImSt13move_iteratorIPmEET0_PT_
	movq	%rax, %rdi
	movq	-48(%rbp), %rdx
	movq	-40(%rbp), %rax
	movq	%rdx, %rcx
	movq	%rax, %rdx
	movq	%rbx, %rsi
	call	_ZSt22__uninitialized_copy_aISt13move_iteratorIPmES1_mET0_T_S4_S3_RSaIT1_E
	movq	-8(%rbp), %rbx
	leave
	.cfi_def_cfa 7, 8
	ret
	.cfi_endproc
.LFE2752:
	.size	_ZSt34__uninitialized_move_if_noexcept_aIPmS0_SaImEET0_T_S3_S2_RT1_, .-_ZSt34__uninitialized_move_if_noexcept_aIPmS0_SaImEET0_T_S3_S2_RT1_
	.section	.text._ZNSt16allocator_traitsISaImEE7destroyImEEvRS0_PT_,"axG",@progbits,_ZNSt16allocator_traitsISaImEE7destroyImEEvRS0_PT_,comdat
	.weak	_ZNSt16allocator_traitsISaImEE7destroyImEEvRS0_PT_
	.type	_ZNSt16allocator_traitsISaImEE7destroyImEEvRS0_PT_, @function
_ZNSt16allocator_traitsISaImEE7destroyImEEvRS0_PT_:
.LFB2753:
	.cfi_startproc
	pushq	%rbp
	.cfi_def_cfa_offset 16
	.cfi_offset 6, -16
	movq	%rsp, %rbp
	.cfi_def_cfa_register 6
	subq	$16, %rsp
	movq	%rdi, -8(%rbp)
	movq	%rsi, -16(%rbp)
	movq	-16(%rbp), %rdx
	movq	-8(%rbp), %rax
	movq	%rdx, %rsi
	movq	%rax, %rdi
	call	_ZN9__gnu_cxx13new_allocatorImE7destroyImEEvPT_
	nop
	leave
	.cfi_def_cfa 7, 8
	ret
	.cfi_endproc
.LFE2753:
	.size	_ZNSt16allocator_traitsISaImEE7destroyImEEvRS0_PT_, .-_ZNSt16allocator_traitsISaImEE7destroyImEEvRS0_PT_
	.section	.text._ZN9__gnu_cxx13new_allocatorIdEC2Ev,"axG",@progbits,_ZN9__gnu_cxx13new_allocatorIdEC5Ev,comdat
	.align 2
	.weak	_ZN9__gnu_cxx13new_allocatorIdEC2Ev
	.type	_ZN9__gnu_cxx13new_allocatorIdEC2Ev, @function
_ZN9__gnu_cxx13new_allocatorIdEC2Ev:
.LFB2755:
	.cfi_startproc
	pushq	%rbp
	.cfi_def_cfa_offset 16
	.cfi_offset 6, -16
	movq	%rsp, %rbp
	.cfi_def_cfa_register 6
	movq	%rdi, -8(%rbp)
	nop
	popq	%rbp
	.cfi_def_cfa 7, 8
	ret
	.cfi_endproc
.LFE2755:
	.size	_ZN9__gnu_cxx13new_allocatorIdEC2Ev, .-_ZN9__gnu_cxx13new_allocatorIdEC2Ev
	.weak	_ZN9__gnu_cxx13new_allocatorIdEC1Ev
	.set	_ZN9__gnu_cxx13new_allocatorIdEC1Ev,_ZN9__gnu_cxx13new_allocatorIdEC2Ev
	.section	.text._ZNSt16allocator_traitsISaIdEE10deallocateERS0_Pdm,"axG",@progbits,_ZNSt16allocator_traitsISaIdEE10deallocateERS0_Pdm,comdat
	.weak	_ZNSt16allocator_traitsISaIdEE10deallocateERS0_Pdm
	.type	_ZNSt16allocator_traitsISaIdEE10deallocateERS0_Pdm, @function
_ZNSt16allocator_traitsISaIdEE10deallocateERS0_Pdm:
.LFB2757:
	.cfi_startproc
	pushq	%rbp
	.cfi_def_cfa_offset 16
	.cfi_offset 6, -16
	movq	%rsp, %rbp
	.cfi_def_cfa_register 6
	subq	$32, %rsp
	movq	%rdi, -8(%rbp)
	movq	%rsi, -16(%rbp)
	movq	%rdx, -24(%rbp)
	movq	-24(%rbp), %rdx
	movq	-16(%rbp), %rcx
	movq	-8(%rbp), %rax
	movq	%rcx, %rsi
	movq	%rax, %rdi
	call	_ZN9__gnu_cxx13new_allocatorIdE10deallocateEPdm
	nop
	leave
	.cfi_def_cfa 7, 8
	ret
	.cfi_endproc
.LFE2757:
	.size	_ZNSt16allocator_traitsISaIdEE10deallocateERS0_Pdm, .-_ZNSt16allocator_traitsISaIdEE10deallocateERS0_Pdm
	.section	.text._ZSt8_DestroyIPdEvT_S1_,"axG",@progbits,_ZSt8_DestroyIPdEvT_S1_,comdat
	.weak	_ZSt8_DestroyIPdEvT_S1_
	.type	_ZSt8_DestroyIPdEvT_S1_, @function
_ZSt8_DestroyIPdEvT_S1_:
.LFB2758:
	.cfi_startproc
	pushq	%rbp
	.cfi_def_cfa_offset 16
	.cfi_offset 6, -16
	movq	%rsp, %rbp
	.cfi_def_cfa_register 6
	subq	$16, %rsp
	movq	%rdi, -8(%rbp)
	movq	%rsi, -16(%rbp)
	movq	-16(%rbp), %rdx
	movq	-8(%rbp), %rax
	movq	%rdx, %rsi
	movq	%rax, %rdi
	call	_ZNSt12_Destroy_auxILb1EE9__destroyIPdEEvT_S3_
	nop
	leave
	.cfi_def_cfa 7, 8
	ret
	.cfi_endproc
.LFE2758:
	.size	_ZSt8_DestroyIPdEvT_S1_, .-_ZSt8_DestroyIPdEvT_S1_
	.section	.text._ZN9__gnu_cxx13new_allocatorIdE9constructIdJdEEEvPT_DpOT0_,"axG",@progbits,_ZN9__gnu_cxx13new_allocatorIdE9constructIdJdEEEvPT_DpOT0_,comdat
	.align 2
	.weak	_ZN9__gnu_cxx13new_allocatorIdE9constructIdJdEEEvPT_DpOT0_
	.type	_ZN9__gnu_cxx13new_allocatorIdE9constructIdJdEEEvPT_DpOT0_, @function
_ZN9__gnu_cxx13new_allocatorIdE9constructIdJdEEEvPT_DpOT0_:
.LFB2759:
	.cfi_startproc
	pushq	%rbp
	.cfi_def_cfa_offset 16
	.cfi_offset 6, -16
	movq	%rsp, %rbp
	.cfi_def_cfa_register 6
	subq	$32, %rsp
	movq	%rdi, -8(%rbp)
	movq	%rsi, -16(%rbp)
	movq	%rdx, -24(%rbp)
	movq	-24(%rbp), %rax
	movq	%rax, %rdi
	call	_ZSt7forwardIdEOT_RNSt16remove_referenceIS0_E4typeE
	vmovsd	(%rax), %xmm0
	vmovsd	%xmm0, -32(%rbp)
	movq	-16(%rbp), %rax
	movq	%rax, %rsi
	movl	$8, %edi
	call	_ZnwmPv
	vmovsd	-32(%rbp), %xmm0
	vmovsd	%xmm0, (%rax)
	nop
	leave
	.cfi_def_cfa 7, 8
	ret
	.cfi_endproc
.LFE2759:
	.size	_ZN9__gnu_cxx13new_allocatorIdE9constructIdJdEEEvPT_DpOT0_, .-_ZN9__gnu_cxx13new_allocatorIdE9constructIdJdEEEvPT_DpOT0_
	.section	.text._ZN9__gnu_cxx17__normal_iteratorIPdSt6vectorIdSaIdEEEC2ERKS1_,"axG",@progbits,_ZN9__gnu_cxx17__normal_iteratorIPdSt6vectorIdSaIdEEEC5ERKS1_,comdat
	.align 2
	.weak	_ZN9__gnu_cxx17__normal_iteratorIPdSt6vectorIdSaIdEEEC2ERKS1_
	.type	_ZN9__gnu_cxx17__normal_iteratorIPdSt6vectorIdSaIdEEEC2ERKS1_, @function
_ZN9__gnu_cxx17__normal_iteratorIPdSt6vectorIdSaIdEEEC2ERKS1_:
.LFB2761:
	.cfi_startproc
	pushq	%rbp
	.cfi_def_cfa_offset 16
	.cfi_offset 6, -16
	movq	%rsp, %rbp
	.cfi_def_cfa_register 6
	movq	%rdi, -8(%rbp)
	movq	%rsi, -16(%rbp)
	movq	-16(%rbp), %rax
	movq	(%rax), %rdx
	movq	-8(%rbp), %rax
	movq	%rdx, (%rax)
	nop
	popq	%rbp
	.cfi_def_cfa 7, 8
	ret
	.cfi_endproc
.LFE2761:
	.size	_ZN9__gnu_cxx17__normal_iteratorIPdSt6vectorIdSaIdEEEC2ERKS1_, .-_ZN9__gnu_cxx17__normal_iteratorIPdSt6vectorIdSaIdEEEC2ERKS1_
	.weak	_ZN9__gnu_cxx17__normal_iteratorIPdSt6vectorIdSaIdEEEC1ERKS1_
	.set	_ZN9__gnu_cxx17__normal_iteratorIPdSt6vectorIdSaIdEEEC1ERKS1_,_ZN9__gnu_cxx17__normal_iteratorIPdSt6vectorIdSaIdEEEC2ERKS1_
	.section	.text._ZNKSt6vectorIdSaIdEE12_M_check_lenEmPKc,"axG",@progbits,_ZNKSt6vectorIdSaIdEE12_M_check_lenEmPKc,comdat
	.align 2
	.weak	_ZNKSt6vectorIdSaIdEE12_M_check_lenEmPKc
	.type	_ZNKSt6vectorIdSaIdEE12_M_check_lenEmPKc, @function
_ZNKSt6vectorIdSaIdEE12_M_check_lenEmPKc:
.LFB2763:
	.cfi_startproc
	pushq	%rbp
	.cfi_def_cfa_offset 16
	.cfi_offset 6, -16
	movq	%rsp, %rbp
	.cfi_def_cfa_register 6
	pushq	%rbx
	subq	$56, %rsp
	.cfi_offset 3, -24
	movq	%rdi, -40(%rbp)
	movq	%rsi, -48(%rbp)
	movq	%rdx, -56(%rbp)
	movq	-40(%rbp), %rax
	movq	%rax, %rdi
	call	_ZNKSt6vectorIdSaIdEE8max_sizeEv
	movq	%rax, %rbx
	movq	-40(%rbp), %rax
	movq	%rax, %rdi
	call	_ZNKSt6vectorIdSaIdEE4sizeEv
	subq	%rax, %rbx
	movq	%rbx, %rdx
	movq	-48(%rbp), %rax
	cmpq	%rax, %rdx
	setb	%al
	testb	%al, %al
	je	.L198
	movq	-56(%rbp), %rax
	movq	%rax, %rdi
	call	_ZSt20__throw_length_errorPKc@PLT
.L198:
	movq	-40(%rbp), %rax
	movq	%rax, %rdi
	call	_ZNKSt6vectorIdSaIdEE4sizeEv
	movq	%rax, %rbx
	movq	-40(%rbp), %rax
	movq	%rax, %rdi
	call	_ZNKSt6vectorIdSaIdEE4sizeEv
	movq	%rax, -32(%rbp)
	leaq	-48(%rbp), %rdx
	leaq	-32(%rbp), %rax
	movq	%rdx, %rsi
	movq	%rax, %rdi
	call	_ZSt3maxImERKT_S2_S2_
	movq	(%rax), %rax
	addq	%rbx, %rax
	movq	%rax, -24(%rbp)
	movq	-40(%rbp), %rax
	movq	%rax, %rdi
	call	_ZNKSt6vectorIdSaIdEE4sizeEv
	cmpq	%rax, -24(%rbp)
	jb	.L199
	movq	-40(%rbp), %rax
	movq	%rax, %rdi
	call	_ZNKSt6vectorIdSaIdEE8max_sizeEv
	cmpq	%rax, -24(%rbp)
	jbe	.L200
.L199:
	movq	-40(%rbp), %rax
	movq	%rax, %rdi
	call	_ZNKSt6vectorIdSaIdEE8max_sizeEv
	jmp	.L201
.L200:
	movq	-24(%rbp), %rax
.L201:
	movq	-8(%rbp), %rbx
	leave
	.cfi_def_cfa 7, 8
	ret
	.cfi_endproc
.LFE2763:
	.size	_ZNKSt6vectorIdSaIdEE12_M_check_lenEmPKc, .-_ZNKSt6vectorIdSaIdEE12_M_check_lenEmPKc
	.section	.text._ZNSt6vectorIdSaIdEE5beginEv,"axG",@progbits,_ZNSt6vectorIdSaIdEE5beginEv,comdat
	.align 2
	.weak	_ZNSt6vectorIdSaIdEE5beginEv
	.type	_ZNSt6vectorIdSaIdEE5beginEv, @function
_ZNSt6vectorIdSaIdEE5beginEv:
.LFB2764:
	.cfi_startproc
	pushq	%rbp
	.cfi_def_cfa_offset 16
	.cfi_offset 6, -16
	movq	%rsp, %rbp
	.cfi_def_cfa_register 6
	subq	$32, %rsp
	movq	%rdi, -24(%rbp)
	movq	-24(%rbp), %rdx
	leaq	-8(%rbp), %rax
	movq	%rdx, %rsi
	movq	%rax, %rdi
	call	_ZN9__gnu_cxx17__normal_iteratorIPdSt6vectorIdSaIdEEEC1ERKS1_
	movq	-8(%rbp), %rax
	leave
	.cfi_def_cfa 7, 8
	ret
	.cfi_endproc
.LFE2764:
	.size	_ZNSt6vectorIdSaIdEE5beginEv, .-_ZNSt6vectorIdSaIdEE5beginEv
	.section	.text._ZN9__gnu_cxxmiIPdSt6vectorIdSaIdEEEENS_17__normal_iteratorIT_T0_E15difference_typeERKS8_SB_,"axG",@progbits,_ZN9__gnu_cxxmiIPdSt6vectorIdSaIdEEEENS_17__normal_iteratorIT_T0_E15difference_typeERKS8_SB_,comdat
	.weak	_ZN9__gnu_cxxmiIPdSt6vectorIdSaIdEEEENS_17__normal_iteratorIT_T0_E15difference_typeERKS8_SB_
	.type	_ZN9__gnu_cxxmiIPdSt6vectorIdSaIdEEEENS_17__normal_iteratorIT_T0_E15difference_typeERKS8_SB_, @function
_ZN9__gnu_cxxmiIPdSt6vectorIdSaIdEEEENS_17__normal_iteratorIT_T0_E15difference_typeERKS8_SB_:
.LFB2765:
	.cfi_startproc
	pushq	%rbp
	.cfi_def_cfa_offset 16
	.cfi_offset 6, -16
	movq	%rsp, %rbp
	.cfi_def_cfa_register 6
	pushq	%rbx
	subq	$24, %rsp
	.cfi_offset 3, -24
	movq	%rdi, -24(%rbp)
	movq	%rsi, -32(%rbp)
	movq	-24(%rbp), %rax
	movq	%rax, %rdi
	call	_ZNK9__gnu_cxx17__normal_iteratorIPdSt6vectorIdSaIdEEE4baseEv
	movq	(%rax), %rbx
	movq	-32(%rbp), %rax
	movq	%rax, %rdi
	call	_ZNK9__gnu_cxx17__normal_iteratorIPdSt6vectorIdSaIdEEE4baseEv
	movq	(%rax), %rdx
	movq	%rbx, %rax
	subq	%rdx, %rax
	sarq	$3, %rax
	movq	-8(%rbp), %rbx
	leave
	.cfi_def_cfa 7, 8
	ret
	.cfi_endproc
.LFE2765:
	.size	_ZN9__gnu_cxxmiIPdSt6vectorIdSaIdEEEENS_17__normal_iteratorIT_T0_E15difference_typeERKS8_SB_, .-_ZN9__gnu_cxxmiIPdSt6vectorIdSaIdEEEENS_17__normal_iteratorIT_T0_E15difference_typeERKS8_SB_
	.section	.text._ZNSt12_Vector_baseIdSaIdEE11_M_allocateEm,"axG",@progbits,_ZNSt12_Vector_baseIdSaIdEE11_M_allocateEm,comdat
	.align 2
	.weak	_ZNSt12_Vector_baseIdSaIdEE11_M_allocateEm
	.type	_ZNSt12_Vector_baseIdSaIdEE11_M_allocateEm, @function
_ZNSt12_Vector_baseIdSaIdEE11_M_allocateEm:
.LFB2766:
	.cfi_startproc
	pushq	%rbp
	.cfi_def_cfa_offset 16
	.cfi_offset 6, -16
	movq	%rsp, %rbp
	.cfi_def_cfa_register 6
	subq	$16, %rsp
	movq	%rdi, -8(%rbp)
	movq	%rsi, -16(%rbp)
	cmpq	$0, -16(%rbp)
	je	.L208
	movq	-8(%rbp), %rax
	movq	-16(%rbp), %rdx
	movq	%rdx, %rsi
	movq	%rax, %rdi
	call	_ZNSt16allocator_traitsISaIdEE8allocateERS0_m
	jmp	.L210
.L208:
	movl	$0, %eax
.L210:
	leave
	.cfi_def_cfa 7, 8
	ret
	.cfi_endproc
.LFE2766:
	.size	_ZNSt12_Vector_baseIdSaIdEE11_M_allocateEm, .-_ZNSt12_Vector_baseIdSaIdEE11_M_allocateEm
	.section	.text._ZNSt6vectorIdSaIdEE11_S_relocateEPdS2_S2_RS0_,"axG",@progbits,_ZNSt6vectorIdSaIdEE11_S_relocateEPdS2_S2_RS0_,comdat
	.weak	_ZNSt6vectorIdSaIdEE11_S_relocateEPdS2_S2_RS0_
	.type	_ZNSt6vectorIdSaIdEE11_S_relocateEPdS2_S2_RS0_, @function
_ZNSt6vectorIdSaIdEE11_S_relocateEPdS2_S2_RS0_:
.LFB2767:
	.cfi_startproc
	pushq	%rbp
	.cfi_def_cfa_offset 16
	.cfi_offset 6, -16
	movq	%rsp, %rbp
	.cfi_def_cfa_register 6
	subq	$32, %rsp
	movq	%rdi, -8(%rbp)
	movq	%rsi, -16(%rbp)
	movq	%rdx, -24(%rbp)
	movq	%rcx, -32(%rbp)
	movq	-32(%rbp), %rcx
	movq	-24(%rbp), %rdx
	movq	-16(%rbp), %rsi
	movq	-8(%rbp), %rax
	movq	%rax, %rdi
	call	_ZNSt6vectorIdSaIdEE14_S_do_relocateEPdS2_S2_RS0_St17integral_constantIbLb1EE
	leave
	.cfi_def_cfa 7, 8
	ret
	.cfi_endproc
.LFE2767:
	.size	_ZNSt6vectorIdSaIdEE11_S_relocateEPdS2_S2_RS0_, .-_ZNSt6vectorIdSaIdEE11_S_relocateEPdS2_S2_RS0_
	.section	.text._ZNK9__gnu_cxx17__normal_iteratorIPdSt6vectorIdSaIdEEE4baseEv,"axG",@progbits,_ZNK9__gnu_cxx17__normal_iteratorIPdSt6vectorIdSaIdEEE4baseEv,comdat
	.align 2
	.weak	_ZNK9__gnu_cxx17__normal_iteratorIPdSt6vectorIdSaIdEEE4baseEv
	.type	_ZNK9__gnu_cxx17__normal_iteratorIPdSt6vectorIdSaIdEEE4baseEv, @function
_ZNK9__gnu_cxx17__normal_iteratorIPdSt6vectorIdSaIdEEE4baseEv:
.LFB2768:
	.cfi_startproc
	pushq	%rbp
	.cfi_def_cfa_offset 16
	.cfi_offset 6, -16
	movq	%rsp, %rbp
	.cfi_def_cfa_register 6
	movq	%rdi, -8(%rbp)
	movq	-8(%rbp), %rax
	popq	%rbp
	.cfi_def_cfa 7, 8
	ret
	.cfi_endproc
.LFE2768:
	.size	_ZNK9__gnu_cxx17__normal_iteratorIPdSt6vectorIdSaIdEEE4baseEv, .-_ZNK9__gnu_cxx17__normal_iteratorIPdSt6vectorIdSaIdEEE4baseEv
	.section	.text._ZSt34__uninitialized_move_if_noexcept_aIPdS0_SaIdEET0_T_S3_S2_RT1_,"axG",@progbits,_ZSt34__uninitialized_move_if_noexcept_aIPdS0_SaIdEET0_T_S3_S2_RT1_,comdat
	.weak	_ZSt34__uninitialized_move_if_noexcept_aIPdS0_SaIdEET0_T_S3_S2_RT1_
	.type	_ZSt34__uninitialized_move_if_noexcept_aIPdS0_SaIdEET0_T_S3_S2_RT1_, @function
_ZSt34__uninitialized_move_if_noexcept_aIPdS0_SaIdEET0_T_S3_S2_RT1_:
.LFB2769:
	.cfi_startproc
	pushq	%rbp
	.cfi_def_cfa_offset 16
	.cfi_offset 6, -16
	movq	%rsp, %rbp
	.cfi_def_cfa_register 6
	pushq	%rbx
	subq	$40, %rsp
	.cfi_offset 3, -24
	movq	%rdi, -24(%rbp)
	movq	%rsi, -32(%rbp)
	movq	%rdx, -40(%rbp)
	movq	%rcx, -48(%rbp)
	movq	-32(%rbp), %rax
	movq	%rax, %rdi
	call	_ZSt32__make_move_if_noexcept_iteratorIdSt13move_iteratorIPdEET0_PT_
	movq	%rax, %rbx
	movq	-24(%rbp), %rax
	movq	%rax, %rdi
	call	_ZSt32__make_move_if_noexcept_iteratorIdSt13move_iteratorIPdEET0_PT_
	movq	%rax, %rdi
	movq	-48(%rbp), %rdx
	movq	-40(%rbp), %rax
	movq	%rdx, %rcx
	movq	%rax, %rdx
	movq	%rbx, %rsi
	call	_ZSt22__uninitialized_copy_aISt13move_iteratorIPdES1_dET0_T_S4_S3_RSaIT1_E
	movq	-8(%rbp), %rbx
	leave
	.cfi_def_cfa 7, 8
	ret
	.cfi_endproc
.LFE2769:
	.size	_ZSt34__uninitialized_move_if_noexcept_aIPdS0_SaIdEET0_T_S3_S2_RT1_, .-_ZSt34__uninitialized_move_if_noexcept_aIPdS0_SaIdEET0_T_S3_S2_RT1_
	.section	.text._ZNSt16allocator_traitsISaIdEE7destroyIdEEvRS0_PT_,"axG",@progbits,_ZNSt16allocator_traitsISaIdEE7destroyIdEEvRS0_PT_,comdat
	.weak	_ZNSt16allocator_traitsISaIdEE7destroyIdEEvRS0_PT_
	.type	_ZNSt16allocator_traitsISaIdEE7destroyIdEEvRS0_PT_, @function
_ZNSt16allocator_traitsISaIdEE7destroyIdEEvRS0_PT_:
.LFB2770:
	.cfi_startproc
	pushq	%rbp
	.cfi_def_cfa_offset 16
	.cfi_offset 6, -16
	movq	%rsp, %rbp
	.cfi_def_cfa_register 6
	subq	$16, %rsp
	movq	%rdi, -8(%rbp)
	movq	%rsi, -16(%rbp)
	movq	-16(%rbp), %rdx
	movq	-8(%rbp), %rax
	movq	%rdx, %rsi
	movq	%rax, %rdi
	call	_ZN9__gnu_cxx13new_allocatorIdE7destroyIdEEvPT_
	nop
	leave
	.cfi_def_cfa 7, 8
	ret
	.cfi_endproc
.LFE2770:
	.size	_ZNSt16allocator_traitsISaIdEE7destroyIdEEvRS0_PT_, .-_ZNSt16allocator_traitsISaIdEE7destroyIdEEvRS0_PT_
	.section	.text._ZN9__gnu_cxx13new_allocatorImE10deallocateEPmm,"axG",@progbits,_ZN9__gnu_cxx13new_allocatorImE10deallocateEPmm,comdat
	.align 2
	.weak	_ZN9__gnu_cxx13new_allocatorImE10deallocateEPmm
	.type	_ZN9__gnu_cxx13new_allocatorImE10deallocateEPmm, @function
_ZN9__gnu_cxx13new_allocatorImE10deallocateEPmm:
.LFB2805:
	.cfi_startproc
	pushq	%rbp
	.cfi_def_cfa_offset 16
	.cfi_offset 6, -16
	movq	%rsp, %rbp
	.cfi_def_cfa_register 6
	subq	$32, %rsp
	movq	%rdi, -8(%rbp)
	movq	%rsi, -16(%rbp)
	movq	%rdx, -24(%rbp)
	movq	-24(%rbp), %rax
	leaq	0(,%rax,8), %rdx
	movq	-16(%rbp), %rax
	movq	%rdx, %rsi
	movq	%rax, %rdi
	call	_ZdlPvm@PLT
	nop
	leave
	.cfi_def_cfa 7, 8
	ret
	.cfi_endproc
.LFE2805:
	.size	_ZN9__gnu_cxx13new_allocatorImE10deallocateEPmm, .-_ZN9__gnu_cxx13new_allocatorImE10deallocateEPmm
	.section	.text._ZNSt12_Destroy_auxILb1EE9__destroyIPmEEvT_S3_,"axG",@progbits,_ZNSt12_Destroy_auxILb1EE9__destroyIPmEEvT_S3_,comdat
	.weak	_ZNSt12_Destroy_auxILb1EE9__destroyIPmEEvT_S3_
	.type	_ZNSt12_Destroy_auxILb1EE9__destroyIPmEEvT_S3_, @function
_ZNSt12_Destroy_auxILb1EE9__destroyIPmEEvT_S3_:
.LFB2806:
	.cfi_startproc
	pushq	%rbp
	.cfi_def_cfa_offset 16
	.cfi_offset 6, -16
	movq	%rsp, %rbp
	.cfi_def_cfa_register 6
	movq	%rdi, -8(%rbp)
	movq	%rsi, -16(%rbp)
	nop
	popq	%rbp
	.cfi_def_cfa 7, 8
	ret
	.cfi_endproc
.LFE2806:
	.size	_ZNSt12_Destroy_auxILb1EE9__destroyIPmEEvT_S3_, .-_ZNSt12_Destroy_auxILb1EE9__destroyIPmEEvT_S3_
	.section	.text._ZNKSt6vectorImSaImEE8max_sizeEv,"axG",@progbits,_ZNKSt6vectorImSaImEE8max_sizeEv,comdat
	.align 2
	.weak	_ZNKSt6vectorImSaImEE8max_sizeEv
	.type	_ZNKSt6vectorImSaImEE8max_sizeEv, @function
_ZNKSt6vectorImSaImEE8max_sizeEv:
.LFB2807:
	.cfi_startproc
	pushq	%rbp
	.cfi_def_cfa_offset 16
	.cfi_offset 6, -16
	movq	%rsp, %rbp
	.cfi_def_cfa_register 6
	subq	$16, %rsp
	movq	%rdi, -8(%rbp)
	movq	-8(%rbp), %rax
	movq	%rax, %rdi
	call	_ZNKSt12_Vector_baseImSaImEE19_M_get_Tp_allocatorEv
	movq	%rax, %rdi
	call	_ZNSt6vectorImSaImEE11_S_max_sizeERKS0_
	leave
	.cfi_def_cfa 7, 8
	ret
	.cfi_endproc
.LFE2807:
	.size	_ZNKSt6vectorImSaImEE8max_sizeEv, .-_ZNKSt6vectorImSaImEE8max_sizeEv
	.section	.text._ZSt3maxImERKT_S2_S2_,"axG",@progbits,_ZSt3maxImERKT_S2_S2_,comdat
	.weak	_ZSt3maxImERKT_S2_S2_
	.type	_ZSt3maxImERKT_S2_S2_, @function
_ZSt3maxImERKT_S2_S2_:
.LFB2808:
	.cfi_startproc
	pushq	%rbp
	.cfi_def_cfa_offset 16
	.cfi_offset 6, -16
	movq	%rsp, %rbp
	.cfi_def_cfa_register 6
	movq	%rdi, -8(%rbp)
	movq	%rsi, -16(%rbp)
	movq	-8(%rbp), %rax
	movq	(%rax), %rdx
	movq	-16(%rbp), %rax
	movq	(%rax), %rax
	cmpq	%rax, %rdx
	jnb	.L223
	movq	-16(%rbp), %rax
	jmp	.L224
.L223:
	movq	-8(%rbp), %rax
.L224:
	popq	%rbp
	.cfi_def_cfa 7, 8
	ret
	.cfi_endproc
.LFE2808:
	.size	_ZSt3maxImERKT_S2_S2_, .-_ZSt3maxImERKT_S2_S2_
	.section	.text._ZNSt16allocator_traitsISaImEE8allocateERS0_m,"axG",@progbits,_ZNSt16allocator_traitsISaImEE8allocateERS0_m,comdat
	.weak	_ZNSt16allocator_traitsISaImEE8allocateERS0_m
	.type	_ZNSt16allocator_traitsISaImEE8allocateERS0_m, @function
_ZNSt16allocator_traitsISaImEE8allocateERS0_m:
.LFB2809:
	.cfi_startproc
	pushq	%rbp
	.cfi_def_cfa_offset 16
	.cfi_offset 6, -16
	movq	%rsp, %rbp
	.cfi_def_cfa_register 6
	subq	$16, %rsp
	movq	%rdi, -8(%rbp)
	movq	%rsi, -16(%rbp)
	movq	-16(%rbp), %rcx
	movq	-8(%rbp), %rax
	movl	$0, %edx
	movq	%rcx, %rsi
	movq	%rax, %rdi
	call	_ZN9__gnu_cxx13new_allocatorImE8allocateEmPKv
	leave
	.cfi_def_cfa 7, 8
	ret
	.cfi_endproc
.LFE2809:
	.size	_ZNSt16allocator_traitsISaImEE8allocateERS0_m, .-_ZNSt16allocator_traitsISaImEE8allocateERS0_m
	.section	.text._ZNSt6vectorImSaImEE14_S_do_relocateEPmS2_S2_RS0_St17integral_constantIbLb1EE,"axG",@progbits,_ZNSt6vectorImSaImEE14_S_do_relocateEPmS2_S2_RS0_St17integral_constantIbLb1EE,comdat
	.weak	_ZNSt6vectorImSaImEE14_S_do_relocateEPmS2_S2_RS0_St17integral_constantIbLb1EE
	.type	_ZNSt6vectorImSaImEE14_S_do_relocateEPmS2_S2_RS0_St17integral_constantIbLb1EE, @function
_ZNSt6vectorImSaImEE14_S_do_relocateEPmS2_S2_RS0_St17integral_constantIbLb1EE:
.LFB2810:
	.cfi_startproc
	pushq	%rbp
	.cfi_def_cfa_offset 16
	.cfi_offset 6, -16
	movq	%rsp, %rbp
	.cfi_def_cfa_register 6
	subq	$32, %rsp
	movq	%rdi, -8(%rbp)
	movq	%rsi, -16(%rbp)
	movq	%rdx, -24(%rbp)
	movq	%rcx, -32(%rbp)
	movq	-32(%rbp), %rcx
	movq	-24(%rbp), %rdx
	movq	-16(%rbp), %rsi
	movq	-8(%rbp), %rax
	movq	%rax, %rdi
	call	_ZSt12__relocate_aIPmS0_SaImEET0_T_S3_S2_RT1_
	leave
	.cfi_def_cfa 7, 8
	ret
	.cfi_endproc
.LFE2810:
	.size	_ZNSt6vectorImSaImEE14_S_do_relocateEPmS2_S2_RS0_St17integral_constantIbLb1EE, .-_ZNSt6vectorImSaImEE14_S_do_relocateEPmS2_S2_RS0_St17integral_constantIbLb1EE
	.section	.text._ZSt32__make_move_if_noexcept_iteratorImSt13move_iteratorIPmEET0_PT_,"axG",@progbits,_ZSt32__make_move_if_noexcept_iteratorImSt13move_iteratorIPmEET0_PT_,comdat
	.weak	_ZSt32__make_move_if_noexcept_iteratorImSt13move_iteratorIPmEET0_PT_
	.type	_ZSt32__make_move_if_noexcept_iteratorImSt13move_iteratorIPmEET0_PT_, @function
_ZSt32__make_move_if_noexcept_iteratorImSt13move_iteratorIPmEET0_PT_:
.LFB2811:
	.cfi_startproc
	pushq	%rbp
	.cfi_def_cfa_offset 16
	.cfi_offset 6, -16
	movq	%rsp, %rbp
	.cfi_def_cfa_register 6
	subq	$32, %rsp
	movq	%rdi, -24(%rbp)
	movq	-24(%rbp), %rdx
	leaq	-8(%rbp), %rax
	movq	%rdx, %rsi
	movq	%rax, %rdi
	call	_ZNSt13move_iteratorIPmEC1ES0_
	movq	-8(%rbp), %rax
	leave
	.cfi_def_cfa 7, 8
	ret
	.cfi_endproc
.LFE2811:
	.size	_ZSt32__make_move_if_noexcept_iteratorImSt13move_iteratorIPmEET0_PT_, .-_ZSt32__make_move_if_noexcept_iteratorImSt13move_iteratorIPmEET0_PT_
	.section	.text._ZSt22__uninitialized_copy_aISt13move_iteratorIPmES1_mET0_T_S4_S3_RSaIT1_E,"axG",@progbits,_ZSt22__uninitialized_copy_aISt13move_iteratorIPmES1_mET0_T_S4_S3_RSaIT1_E,comdat
	.weak	_ZSt22__uninitialized_copy_aISt13move_iteratorIPmES1_mET0_T_S4_S3_RSaIT1_E
	.type	_ZSt22__uninitialized_copy_aISt13move_iteratorIPmES1_mET0_T_S4_S3_RSaIT1_E, @function
_ZSt22__uninitialized_copy_aISt13move_iteratorIPmES1_mET0_T_S4_S3_RSaIT1_E:
.LFB2812:
	.cfi_startproc
	pushq	%rbp
	.cfi_def_cfa_offset 16
	.cfi_offset 6, -16
	movq	%rsp, %rbp
	.cfi_def_cfa_register 6
	subq	$32, %rsp
	movq	%rdi, -8(%rbp)
	movq	%rsi, -16(%rbp)
	movq	%rdx, -24(%rbp)
	movq	%rcx, -32(%rbp)
	movq	-24(%rbp), %rdx
	movq	-16(%rbp), %rcx
	movq	-8(%rbp), %rax
	movq	%rcx, %rsi
	movq	%rax, %rdi
	call	_ZSt18uninitialized_copyISt13move_iteratorIPmES1_ET0_T_S4_S3_
	leave
	.cfi_def_cfa 7, 8
	ret
	.cfi_endproc
.LFE2812:
	.size	_ZSt22__uninitialized_copy_aISt13move_iteratorIPmES1_mET0_T_S4_S3_RSaIT1_E, .-_ZSt22__uninitialized_copy_aISt13move_iteratorIPmES1_mET0_T_S4_S3_RSaIT1_E
	.section	.text._ZN9__gnu_cxx13new_allocatorImE7destroyImEEvPT_,"axG",@progbits,_ZN9__gnu_cxx13new_allocatorImE7destroyImEEvPT_,comdat
	.align 2
	.weak	_ZN9__gnu_cxx13new_allocatorImE7destroyImEEvPT_
	.type	_ZN9__gnu_cxx13new_allocatorImE7destroyImEEvPT_, @function
_ZN9__gnu_cxx13new_allocatorImE7destroyImEEvPT_:
.LFB2813:
	.cfi_startproc
	pushq	%rbp
	.cfi_def_cfa_offset 16
	.cfi_offset 6, -16
	movq	%rsp, %rbp
	.cfi_def_cfa_register 6
	movq	%rdi, -8(%rbp)
	movq	%rsi, -16(%rbp)
	nop
	popq	%rbp
	.cfi_def_cfa 7, 8
	ret
	.cfi_endproc
.LFE2813:
	.size	_ZN9__gnu_cxx13new_allocatorImE7destroyImEEvPT_, .-_ZN9__gnu_cxx13new_allocatorImE7destroyImEEvPT_
	.section	.text._ZN9__gnu_cxx13new_allocatorIdE10deallocateEPdm,"axG",@progbits,_ZN9__gnu_cxx13new_allocatorIdE10deallocateEPdm,comdat
	.align 2
	.weak	_ZN9__gnu_cxx13new_allocatorIdE10deallocateEPdm
	.type	_ZN9__gnu_cxx13new_allocatorIdE10deallocateEPdm, @function
_ZN9__gnu_cxx13new_allocatorIdE10deallocateEPdm:
.LFB2814:
	.cfi_startproc
	pushq	%rbp
	.cfi_def_cfa_offset 16
	.cfi_offset 6, -16
	movq	%rsp, %rbp
	.cfi_def_cfa_register 6
	subq	$32, %rsp
	movq	%rdi, -8(%rbp)
	movq	%rsi, -16(%rbp)
	movq	%rdx, -24(%rbp)
	movq	-24(%rbp), %rax
	leaq	0(,%rax,8), %rdx
	movq	-16(%rbp), %rax
	movq	%rdx, %rsi
	movq	%rax, %rdi
	call	_ZdlPvm@PLT
	nop
	leave
	.cfi_def_cfa 7, 8
	ret
	.cfi_endproc
.LFE2814:
	.size	_ZN9__gnu_cxx13new_allocatorIdE10deallocateEPdm, .-_ZN9__gnu_cxx13new_allocatorIdE10deallocateEPdm
	.section	.text._ZNSt12_Destroy_auxILb1EE9__destroyIPdEEvT_S3_,"axG",@progbits,_ZNSt12_Destroy_auxILb1EE9__destroyIPdEEvT_S3_,comdat
	.weak	_ZNSt12_Destroy_auxILb1EE9__destroyIPdEEvT_S3_
	.type	_ZNSt12_Destroy_auxILb1EE9__destroyIPdEEvT_S3_, @function
_ZNSt12_Destroy_auxILb1EE9__destroyIPdEEvT_S3_:
.LFB2815:
	.cfi_startproc
	pushq	%rbp
	.cfi_def_cfa_offset 16
	.cfi_offset 6, -16
	movq	%rsp, %rbp
	.cfi_def_cfa_register 6
	movq	%rdi, -8(%rbp)
	movq	%rsi, -16(%rbp)
	nop
	popq	%rbp
	.cfi_def_cfa 7, 8
	ret
	.cfi_endproc
.LFE2815:
	.size	_ZNSt12_Destroy_auxILb1EE9__destroyIPdEEvT_S3_, .-_ZNSt12_Destroy_auxILb1EE9__destroyIPdEEvT_S3_
	.section	.text._ZNKSt6vectorIdSaIdEE8max_sizeEv,"axG",@progbits,_ZNKSt6vectorIdSaIdEE8max_sizeEv,comdat
	.align 2
	.weak	_ZNKSt6vectorIdSaIdEE8max_sizeEv
	.type	_ZNKSt6vectorIdSaIdEE8max_sizeEv, @function
_ZNKSt6vectorIdSaIdEE8max_sizeEv:
.LFB2816:
	.cfi_startproc
	pushq	%rbp
	.cfi_def_cfa_offset 16
	.cfi_offset 6, -16
	movq	%rsp, %rbp
	.cfi_def_cfa_register 6
	subq	$16, %rsp
	movq	%rdi, -8(%rbp)
	movq	-8(%rbp), %rax
	movq	%rax, %rdi
	call	_ZNKSt12_Vector_baseIdSaIdEE19_M_get_Tp_allocatorEv
	movq	%rax, %rdi
	call	_ZNSt6vectorIdSaIdEE11_S_max_sizeERKS0_
	leave
	.cfi_def_cfa 7, 8
	ret
	.cfi_endproc
.LFE2816:
	.size	_ZNKSt6vectorIdSaIdEE8max_sizeEv, .-_ZNKSt6vectorIdSaIdEE8max_sizeEv
	.section	.text._ZNKSt6vectorIdSaIdEE4sizeEv,"axG",@progbits,_ZNKSt6vectorIdSaIdEE4sizeEv,comdat
	.align 2
	.weak	_ZNKSt6vectorIdSaIdEE4sizeEv
	.type	_ZNKSt6vectorIdSaIdEE4sizeEv, @function
_ZNKSt6vectorIdSaIdEE4sizeEv:
.LFB2817:
	.cfi_startproc
	pushq	%rbp
	.cfi_def_cfa_offset 16
	.cfi_offset 6, -16
	movq	%rsp, %rbp
	.cfi_def_cfa_register 6
	movq	%rdi, -8(%rbp)
	movq	-8(%rbp), %rax
	movq	8(%rax), %rdx
	movq	-8(%rbp), %rax
	movq	(%rax), %rcx
	movq	%rdx, %rax
	subq	%rcx, %rax
	sarq	$3, %rax
	popq	%rbp
	.cfi_def_cfa 7, 8
	ret
	.cfi_endproc
.LFE2817:
	.size	_ZNKSt6vectorIdSaIdEE4sizeEv, .-_ZNKSt6vectorIdSaIdEE4sizeEv
	.section	.text._ZNSt16allocator_traitsISaIdEE8allocateERS0_m,"axG",@progbits,_ZNSt16allocator_traitsISaIdEE8allocateERS0_m,comdat
	.weak	_ZNSt16allocator_traitsISaIdEE8allocateERS0_m
	.type	_ZNSt16allocator_traitsISaIdEE8allocateERS0_m, @function
_ZNSt16allocator_traitsISaIdEE8allocateERS0_m:
.LFB2818:
	.cfi_startproc
	pushq	%rbp
	.cfi_def_cfa_offset 16
	.cfi_offset 6, -16
	movq	%rsp, %rbp
	.cfi_def_cfa_register 6
	subq	$16, %rsp
	movq	%rdi, -8(%rbp)
	movq	%rsi, -16(%rbp)
	movq	-16(%rbp), %rcx
	movq	-8(%rbp), %rax
	movl	$0, %edx
	movq	%rcx, %rsi
	movq	%rax, %rdi
	call	_ZN9__gnu_cxx13new_allocatorIdE8allocateEmPKv
	leave
	.cfi_def_cfa 7, 8
	ret
	.cfi_endproc
.LFE2818:
	.size	_ZNSt16allocator_traitsISaIdEE8allocateERS0_m, .-_ZNSt16allocator_traitsISaIdEE8allocateERS0_m
	.section	.text._ZNSt6vectorIdSaIdEE14_S_do_relocateEPdS2_S2_RS0_St17integral_constantIbLb1EE,"axG",@progbits,_ZNSt6vectorIdSaIdEE14_S_do_relocateEPdS2_S2_RS0_St17integral_constantIbLb1EE,comdat
	.weak	_ZNSt6vectorIdSaIdEE14_S_do_relocateEPdS2_S2_RS0_St17integral_constantIbLb1EE
	.type	_ZNSt6vectorIdSaIdEE14_S_do_relocateEPdS2_S2_RS0_St17integral_constantIbLb1EE, @function
_ZNSt6vectorIdSaIdEE14_S_do_relocateEPdS2_S2_RS0_St17integral_constantIbLb1EE:
.LFB2819:
	.cfi_startproc
	pushq	%rbp
	.cfi_def_cfa_offset 16
	.cfi_offset 6, -16
	movq	%rsp, %rbp
	.cfi_def_cfa_register 6
	subq	$32, %rsp
	movq	%rdi, -8(%rbp)
	movq	%rsi, -16(%rbp)
	movq	%rdx, -24(%rbp)
	movq	%rcx, -32(%rbp)
	movq	-32(%rbp), %rcx
	movq	-24(%rbp), %rdx
	movq	-16(%rbp), %rsi
	movq	-8(%rbp), %rax
	movq	%rax, %rdi
	call	_ZSt12__relocate_aIPdS0_SaIdEET0_T_S3_S2_RT1_
	leave
	.cfi_def_cfa 7, 8
	ret
	.cfi_endproc
.LFE2819:
	.size	_ZNSt6vectorIdSaIdEE14_S_do_relocateEPdS2_S2_RS0_St17integral_constantIbLb1EE, .-_ZNSt6vectorIdSaIdEE14_S_do_relocateEPdS2_S2_RS0_St17integral_constantIbLb1EE
	.section	.text._ZSt32__make_move_if_noexcept_iteratorIdSt13move_iteratorIPdEET0_PT_,"axG",@progbits,_ZSt32__make_move_if_noexcept_iteratorIdSt13move_iteratorIPdEET0_PT_,comdat
	.weak	_ZSt32__make_move_if_noexcept_iteratorIdSt13move_iteratorIPdEET0_PT_
	.type	_ZSt32__make_move_if_noexcept_iteratorIdSt13move_iteratorIPdEET0_PT_, @function
_ZSt32__make_move_if_noexcept_iteratorIdSt13move_iteratorIPdEET0_PT_:
.LFB2820:
	.cfi_startproc
	pushq	%rbp
	.cfi_def_cfa_offset 16
	.cfi_offset 6, -16
	movq	%rsp, %rbp
	.cfi_def_cfa_register 6
	subq	$32, %rsp
	movq	%rdi, -24(%rbp)
	movq	-24(%rbp), %rdx
	leaq	-8(%rbp), %rax
	movq	%rdx, %rsi
	movq	%rax, %rdi
	call	_ZNSt13move_iteratorIPdEC1ES0_
	movq	-8(%rbp), %rax
	leave
	.cfi_def_cfa 7, 8
	ret
	.cfi_endproc
.LFE2820:
	.size	_ZSt32__make_move_if_noexcept_iteratorIdSt13move_iteratorIPdEET0_PT_, .-_ZSt32__make_move_if_noexcept_iteratorIdSt13move_iteratorIPdEET0_PT_
	.section	.text._ZSt22__uninitialized_copy_aISt13move_iteratorIPdES1_dET0_T_S4_S3_RSaIT1_E,"axG",@progbits,_ZSt22__uninitialized_copy_aISt13move_iteratorIPdES1_dET0_T_S4_S3_RSaIT1_E,comdat
	.weak	_ZSt22__uninitialized_copy_aISt13move_iteratorIPdES1_dET0_T_S4_S3_RSaIT1_E
	.type	_ZSt22__uninitialized_copy_aISt13move_iteratorIPdES1_dET0_T_S4_S3_RSaIT1_E, @function
_ZSt22__uninitialized_copy_aISt13move_iteratorIPdES1_dET0_T_S4_S3_RSaIT1_E:
.LFB2821:
	.cfi_startproc
	pushq	%rbp
	.cfi_def_cfa_offset 16
	.cfi_offset 6, -16
	movq	%rsp, %rbp
	.cfi_def_cfa_register 6
	subq	$32, %rsp
	movq	%rdi, -8(%rbp)
	movq	%rsi, -16(%rbp)
	movq	%rdx, -24(%rbp)
	movq	%rcx, -32(%rbp)
	movq	-24(%rbp), %rdx
	movq	-16(%rbp), %rcx
	movq	-8(%rbp), %rax
	movq	%rcx, %rsi
	movq	%rax, %rdi
	call	_ZSt18uninitialized_copyISt13move_iteratorIPdES1_ET0_T_S4_S3_
	leave
	.cfi_def_cfa 7, 8
	ret
	.cfi_endproc
.LFE2821:
	.size	_ZSt22__uninitialized_copy_aISt13move_iteratorIPdES1_dET0_T_S4_S3_RSaIT1_E, .-_ZSt22__uninitialized_copy_aISt13move_iteratorIPdES1_dET0_T_S4_S3_RSaIT1_E
	.section	.text._ZN9__gnu_cxx13new_allocatorIdE7destroyIdEEvPT_,"axG",@progbits,_ZN9__gnu_cxx13new_allocatorIdE7destroyIdEEvPT_,comdat
	.align 2
	.weak	_ZN9__gnu_cxx13new_allocatorIdE7destroyIdEEvPT_
	.type	_ZN9__gnu_cxx13new_allocatorIdE7destroyIdEEvPT_, @function
_ZN9__gnu_cxx13new_allocatorIdE7destroyIdEEvPT_:
.LFB2822:
	.cfi_startproc
	pushq	%rbp
	.cfi_def_cfa_offset 16
	.cfi_offset 6, -16
	movq	%rsp, %rbp
	.cfi_def_cfa_register 6
	movq	%rdi, -8(%rbp)
	movq	%rsi, -16(%rbp)
	nop
	popq	%rbp
	.cfi_def_cfa 7, 8
	ret
	.cfi_endproc
.LFE2822:
	.size	_ZN9__gnu_cxx13new_allocatorIdE7destroyIdEEvPT_, .-_ZN9__gnu_cxx13new_allocatorIdE7destroyIdEEvPT_
	.section	.text._ZNSt6vectorImSaImEE11_S_max_sizeERKS0_,"axG",@progbits,_ZNSt6vectorImSaImEE11_S_max_sizeERKS0_,comdat
	.weak	_ZNSt6vectorImSaImEE11_S_max_sizeERKS0_
	.type	_ZNSt6vectorImSaImEE11_S_max_sizeERKS0_, @function
_ZNSt6vectorImSaImEE11_S_max_sizeERKS0_:
.LFB2852:
	.cfi_startproc
	pushq	%rbp
	.cfi_def_cfa_offset 16
	.cfi_offset 6, -16
	movq	%rsp, %rbp
	.cfi_def_cfa_register 6
	subq	$32, %rsp
	movq	%rdi, -24(%rbp)
	movabsq	$1152921504606846975, %rax
	movq	%rax, -8(%rbp)
	movq	-24(%rbp), %rax
	movq	%rax, %rdi
	call	_ZNSt16allocator_traitsISaImEE8max_sizeERKS0_
	movq	%rax, -16(%rbp)
	leaq	-16(%rbp), %rdx
	leaq	-8(%rbp), %rax
	movq	%rdx, %rsi
	movq	%rax, %rdi
	call	_ZSt3minImERKT_S2_S2_
	movq	(%rax), %rax
	leave
	.cfi_def_cfa 7, 8
	ret
	.cfi_endproc
.LFE2852:
	.size	_ZNSt6vectorImSaImEE11_S_max_sizeERKS0_, .-_ZNSt6vectorImSaImEE11_S_max_sizeERKS0_
	.section	.text._ZNKSt12_Vector_baseImSaImEE19_M_get_Tp_allocatorEv,"axG",@progbits,_ZNKSt12_Vector_baseImSaImEE19_M_get_Tp_allocatorEv,comdat
	.align 2
	.weak	_ZNKSt12_Vector_baseImSaImEE19_M_get_Tp_allocatorEv
	.type	_ZNKSt12_Vector_baseImSaImEE19_M_get_Tp_allocatorEv, @function
_ZNKSt12_Vector_baseImSaImEE19_M_get_Tp_allocatorEv:
.LFB2853:
	.cfi_startproc
	pushq	%rbp
	.cfi_def_cfa_offset 16
	.cfi_offset 6, -16
	movq	%rsp, %rbp
	.cfi_def_cfa_register 6
	movq	%rdi, -8(%rbp)
	movq	-8(%rbp), %rax
	popq	%rbp
	.cfi_def_cfa 7, 8
	ret
	.cfi_endproc
.LFE2853:
	.size	_ZNKSt12_Vector_baseImSaImEE19_M_get_Tp_allocatorEv, .-_ZNKSt12_Vector_baseImSaImEE19_M_get_Tp_allocatorEv
	.section	.text._ZN9__gnu_cxx13new_allocatorImE8allocateEmPKv,"axG",@progbits,_ZN9__gnu_cxx13new_allocatorImE8allocateEmPKv,comdat
	.align 2
	.weak	_ZN9__gnu_cxx13new_allocatorImE8allocateEmPKv
	.type	_ZN9__gnu_cxx13new_allocatorImE8allocateEmPKv, @function
_ZN9__gnu_cxx13new_allocatorImE8allocateEmPKv:
.LFB2854:
	.cfi_startproc
	pushq	%rbp
	.cfi_def_cfa_offset 16
	.cfi_offset 6, -16
	movq	%rsp, %rbp
	.cfi_def_cfa_register 6
	subq	$32, %rsp
	movq	%rdi, -8(%rbp)
	movq	%rsi, -16(%rbp)
	movq	%rdx, -24(%rbp)
	movq	-8(%rbp), %rax
	movq	%rax, %rdi
	call	_ZNK9__gnu_cxx13new_allocatorImE11_M_max_sizeEv
	cmpq	%rax, -16(%rbp)
	seta	%al
	testb	%al, %al
	je	.L254
	call	_ZSt17__throw_bad_allocv@PLT
.L254:
	movq	-16(%rbp), %rax
	salq	$3, %rax
	movq	%rax, %rdi
	call	_Znwm@PLT
	leave
	.cfi_def_cfa 7, 8
	ret
	.cfi_endproc
.LFE2854:
	.size	_ZN9__gnu_cxx13new_allocatorImE8allocateEmPKv, .-_ZN9__gnu_cxx13new_allocatorImE8allocateEmPKv
	.section	.text._ZSt12__relocate_aIPmS0_SaImEET0_T_S3_S2_RT1_,"axG",@progbits,_ZSt12__relocate_aIPmS0_SaImEET0_T_S3_S2_RT1_,comdat
	.weak	_ZSt12__relocate_aIPmS0_SaImEET0_T_S3_S2_RT1_
	.type	_ZSt12__relocate_aIPmS0_SaImEET0_T_S3_S2_RT1_, @function
_ZSt12__relocate_aIPmS0_SaImEET0_T_S3_S2_RT1_:
.LFB2855:
	.cfi_startproc
	pushq	%rbp
	.cfi_def_cfa_offset 16
	.cfi_offset 6, -16
	movq	%rsp, %rbp
	.cfi_def_cfa_register 6
	pushq	%r12
	pushq	%rbx
	subq	$32, %rsp
	.cfi_offset 12, -24
	.cfi_offset 3, -32
	movq	%rdi, -24(%rbp)
	movq	%rsi, -32(%rbp)
	movq	%rdx, -40(%rbp)
	movq	%rcx, -48(%rbp)
	movq	-40(%rbp), %rax
	movq	%rax, %rdi
	call	_ZSt12__niter_baseIPmET_S1_
	movq	%rax, %r12
	movq	-32(%rbp), %rax
	movq	%rax, %rdi
	call	_ZSt12__niter_baseIPmET_S1_
	movq	%rax, %rbx
	movq	-24(%rbp), %rax
	movq	%rax, %rdi
	call	_ZSt12__niter_baseIPmET_S1_
	movq	%rax, %rdi
	movq	-48(%rbp), %rax
	movq	%rax, %rcx
	movq	%r12, %rdx
	movq	%rbx, %rsi
	call	_ZSt14__relocate_a_1ImmENSt9enable_ifIXsrSt24__is_bitwise_relocatableIT_vE5valueEPS2_E4typeES4_S4_S4_RSaIT0_E
	addq	$32, %rsp
	popq	%rbx
	popq	%r12
	popq	%rbp
	.cfi_def_cfa 7, 8
	ret
	.cfi_endproc
.LFE2855:
	.size	_ZSt12__relocate_aIPmS0_SaImEET0_T_S3_S2_RT1_, .-_ZSt12__relocate_aIPmS0_SaImEET0_T_S3_S2_RT1_
	.section	.text._ZNSt13move_iteratorIPmEC2ES0_,"axG",@progbits,_ZNSt13move_iteratorIPmEC5ES0_,comdat
	.align 2
	.weak	_ZNSt13move_iteratorIPmEC2ES0_
	.type	_ZNSt13move_iteratorIPmEC2ES0_, @function
_ZNSt13move_iteratorIPmEC2ES0_:
.LFB2857:
	.cfi_startproc
	pushq	%rbp
	.cfi_def_cfa_offset 16
	.cfi_offset 6, -16
	movq	%rsp, %rbp
	.cfi_def_cfa_register 6
	subq	$16, %rsp
	movq	%rdi, -8(%rbp)
	movq	%rsi, -16(%rbp)
	leaq	-16(%rbp), %rax
	movq	%rax, %rdi
	call	_ZSt4moveIRPmEONSt16remove_referenceIT_E4typeEOS3_
	movq	(%rax), %rdx
	movq	-8(%rbp), %rax
	movq	%rdx, (%rax)
	nop
	leave
	.cfi_def_cfa 7, 8
	ret
	.cfi_endproc
.LFE2857:
	.size	_ZNSt13move_iteratorIPmEC2ES0_, .-_ZNSt13move_iteratorIPmEC2ES0_
	.weak	_ZNSt13move_iteratorIPmEC1ES0_
	.set	_ZNSt13move_iteratorIPmEC1ES0_,_ZNSt13move_iteratorIPmEC2ES0_
	.section	.text._ZSt18uninitialized_copyISt13move_iteratorIPmES1_ET0_T_S4_S3_,"axG",@progbits,_ZSt18uninitialized_copyISt13move_iteratorIPmES1_ET0_T_S4_S3_,comdat
	.weak	_ZSt18uninitialized_copyISt13move_iteratorIPmES1_ET0_T_S4_S3_
	.type	_ZSt18uninitialized_copyISt13move_iteratorIPmES1_ET0_T_S4_S3_, @function
_ZSt18uninitialized_copyISt13move_iteratorIPmES1_ET0_T_S4_S3_:
.LFB2859:
	.cfi_startproc
	pushq	%rbp
	.cfi_def_cfa_offset 16
	.cfi_offset 6, -16
	movq	%rsp, %rbp
	.cfi_def_cfa_register 6
	subq	$48, %rsp
	movq	%rdi, -24(%rbp)
	movq	%rsi, -32(%rbp)
	movq	%rdx, -40(%rbp)
	movb	$1, -1(%rbp)
	movq	-40(%rbp), %rdx
	movq	-32(%rbp), %rcx
	movq	-24(%rbp), %rax
	movq	%rcx, %rsi
	movq	%rax, %rdi
	call	_ZNSt20__uninitialized_copyILb1EE13__uninit_copyISt13move_iteratorIPmES3_EET0_T_S6_S5_
	leave
	.cfi_def_cfa 7, 8
	ret
	.cfi_endproc
.LFE2859:
	.size	_ZSt18uninitialized_copyISt13move_iteratorIPmES1_ET0_T_S4_S3_, .-_ZSt18uninitialized_copyISt13move_iteratorIPmES1_ET0_T_S4_S3_
	.section	.text._ZNSt6vectorIdSaIdEE11_S_max_sizeERKS0_,"axG",@progbits,_ZNSt6vectorIdSaIdEE11_S_max_sizeERKS0_,comdat
	.weak	_ZNSt6vectorIdSaIdEE11_S_max_sizeERKS0_
	.type	_ZNSt6vectorIdSaIdEE11_S_max_sizeERKS0_, @function
_ZNSt6vectorIdSaIdEE11_S_max_sizeERKS0_:
.LFB2861:
	.cfi_startproc
	pushq	%rbp
	.cfi_def_cfa_offset 16
	.cfi_offset 6, -16
	movq	%rsp, %rbp
	.cfi_def_cfa_register 6
	subq	$32, %rsp
	movq	%rdi, -24(%rbp)
	movabsq	$1152921504606846975, %rax
	movq	%rax, -8(%rbp)
	movq	-24(%rbp), %rax
	movq	%rax, %rdi
	call	_ZNSt16allocator_traitsISaIdEE8max_sizeERKS0_
	movq	%rax, -16(%rbp)
	leaq	-16(%rbp), %rdx
	leaq	-8(%rbp), %rax
	movq	%rdx, %rsi
	movq	%rax, %rdi
	call	_ZSt3minImERKT_S2_S2_
	movq	(%rax), %rax
	leave
	.cfi_def_cfa 7, 8
	ret
	.cfi_endproc
.LFE2861:
	.size	_ZNSt6vectorIdSaIdEE11_S_max_sizeERKS0_, .-_ZNSt6vectorIdSaIdEE11_S_max_sizeERKS0_
	.section	.text._ZNKSt12_Vector_baseIdSaIdEE19_M_get_Tp_allocatorEv,"axG",@progbits,_ZNKSt12_Vector_baseIdSaIdEE19_M_get_Tp_allocatorEv,comdat
	.align 2
	.weak	_ZNKSt12_Vector_baseIdSaIdEE19_M_get_Tp_allocatorEv
	.type	_ZNKSt12_Vector_baseIdSaIdEE19_M_get_Tp_allocatorEv, @function
_ZNKSt12_Vector_baseIdSaIdEE19_M_get_Tp_allocatorEv:
.LFB2862:
	.cfi_startproc
	pushq	%rbp
	.cfi_def_cfa_offset 16
	.cfi_offset 6, -16
	movq	%rsp, %rbp
	.cfi_def_cfa_register 6
	movq	%rdi, -8(%rbp)
	movq	-8(%rbp), %rax
	popq	%rbp
	.cfi_def_cfa 7, 8
	ret
	.cfi_endproc
.LFE2862:
	.size	_ZNKSt12_Vector_baseIdSaIdEE19_M_get_Tp_allocatorEv, .-_ZNKSt12_Vector_baseIdSaIdEE19_M_get_Tp_allocatorEv
	.section	.text._ZN9__gnu_cxx13new_allocatorIdE8allocateEmPKv,"axG",@progbits,_ZN9__gnu_cxx13new_allocatorIdE8allocateEmPKv,comdat
	.align 2
	.weak	_ZN9__gnu_cxx13new_allocatorIdE8allocateEmPKv
	.type	_ZN9__gnu_cxx13new_allocatorIdE8allocateEmPKv, @function
_ZN9__gnu_cxx13new_allocatorIdE8allocateEmPKv:
.LFB2863:
	.cfi_startproc
	pushq	%rbp
	.cfi_def_cfa_offset 16
	.cfi_offset 6, -16
	movq	%rsp, %rbp
	.cfi_def_cfa_register 6
	subq	$32, %rsp
	movq	%rdi, -8(%rbp)
	movq	%rsi, -16(%rbp)
	movq	%rdx, -24(%rbp)
	movq	-8(%rbp), %rax
	movq	%rax, %rdi
	call	_ZNK9__gnu_cxx13new_allocatorIdE11_M_max_sizeEv
	cmpq	%rax, -16(%rbp)
	seta	%al
	testb	%al, %al
	je	.L266
	call	_ZSt17__throw_bad_allocv@PLT
.L266:
	movq	-16(%rbp), %rax
	salq	$3, %rax
	movq	%rax, %rdi
	call	_Znwm@PLT
	leave
	.cfi_def_cfa 7, 8
	ret
	.cfi_endproc
.LFE2863:
	.size	_ZN9__gnu_cxx13new_allocatorIdE8allocateEmPKv, .-_ZN9__gnu_cxx13new_allocatorIdE8allocateEmPKv
	.section	.text._ZSt12__relocate_aIPdS0_SaIdEET0_T_S3_S2_RT1_,"axG",@progbits,_ZSt12__relocate_aIPdS0_SaIdEET0_T_S3_S2_RT1_,comdat
	.weak	_ZSt12__relocate_aIPdS0_SaIdEET0_T_S3_S2_RT1_
	.type	_ZSt12__relocate_aIPdS0_SaIdEET0_T_S3_S2_RT1_, @function
_ZSt12__relocate_aIPdS0_SaIdEET0_T_S3_S2_RT1_:
.LFB2864:
	.cfi_startproc
	pushq	%rbp
	.cfi_def_cfa_offset 16
	.cfi_offset 6, -16
	movq	%rsp, %rbp
	.cfi_def_cfa_register 6
	pushq	%r12
	pushq	%rbx
	subq	$32, %rsp
	.cfi_offset 12, -24
	.cfi_offset 3, -32
	movq	%rdi, -24(%rbp)
	movq	%rsi, -32(%rbp)
	movq	%rdx, -40(%rbp)
	movq	%rcx, -48(%rbp)
	movq	-40(%rbp), %rax
	movq	%rax, %rdi
	call	_ZSt12__niter_baseIPdET_S1_
	movq	%rax, %r12
	movq	-32(%rbp), %rax
	movq	%rax, %rdi
	call	_ZSt12__niter_baseIPdET_S1_
	movq	%rax, %rbx
	movq	-24(%rbp), %rax
	movq	%rax, %rdi
	call	_ZSt12__niter_baseIPdET_S1_
	movq	%rax, %rdi
	movq	-48(%rbp), %rax
	movq	%rax, %rcx
	movq	%r12, %rdx
	movq	%rbx, %rsi
	call	_ZSt14__relocate_a_1IddENSt9enable_ifIXsrSt24__is_bitwise_relocatableIT_vE5valueEPS2_E4typeES4_S4_S4_RSaIT0_E
	addq	$32, %rsp
	popq	%rbx
	popq	%r12
	popq	%rbp
	.cfi_def_cfa 7, 8
	ret
	.cfi_endproc
.LFE2864:
	.size	_ZSt12__relocate_aIPdS0_SaIdEET0_T_S3_S2_RT1_, .-_ZSt12__relocate_aIPdS0_SaIdEET0_T_S3_S2_RT1_
	.section	.text._ZNSt13move_iteratorIPdEC2ES0_,"axG",@progbits,_ZNSt13move_iteratorIPdEC5ES0_,comdat
	.align 2
	.weak	_ZNSt13move_iteratorIPdEC2ES0_
	.type	_ZNSt13move_iteratorIPdEC2ES0_, @function
_ZNSt13move_iteratorIPdEC2ES0_:
.LFB2866:
	.cfi_startproc
	pushq	%rbp
	.cfi_def_cfa_offset 16
	.cfi_offset 6, -16
	movq	%rsp, %rbp
	.cfi_def_cfa_register 6
	subq	$16, %rsp
	movq	%rdi, -8(%rbp)
	movq	%rsi, -16(%rbp)
	leaq	-16(%rbp), %rax
	movq	%rax, %rdi
	call	_ZSt4moveIRPdEONSt16remove_referenceIT_E4typeEOS3_
	movq	(%rax), %rdx
	movq	-8(%rbp), %rax
	movq	%rdx, (%rax)
	nop
	leave
	.cfi_def_cfa 7, 8
	ret
	.cfi_endproc
.LFE2866:
	.size	_ZNSt13move_iteratorIPdEC2ES0_, .-_ZNSt13move_iteratorIPdEC2ES0_
	.weak	_ZNSt13move_iteratorIPdEC1ES0_
	.set	_ZNSt13move_iteratorIPdEC1ES0_,_ZNSt13move_iteratorIPdEC2ES0_
	.section	.text._ZSt18uninitialized_copyISt13move_iteratorIPdES1_ET0_T_S4_S3_,"axG",@progbits,_ZSt18uninitialized_copyISt13move_iteratorIPdES1_ET0_T_S4_S3_,comdat
	.weak	_ZSt18uninitialized_copyISt13move_iteratorIPdES1_ET0_T_S4_S3_
	.type	_ZSt18uninitialized_copyISt13move_iteratorIPdES1_ET0_T_S4_S3_, @function
_ZSt18uninitialized_copyISt13move_iteratorIPdES1_ET0_T_S4_S3_:
.LFB2868:
	.cfi_startproc
	pushq	%rbp
	.cfi_def_cfa_offset 16
	.cfi_offset 6, -16
	movq	%rsp, %rbp
	.cfi_def_cfa_register 6
	subq	$48, %rsp
	movq	%rdi, -24(%rbp)
	movq	%rsi, -32(%rbp)
	movq	%rdx, -40(%rbp)
	movb	$1, -1(%rbp)
	movq	-40(%rbp), %rdx
	movq	-32(%rbp), %rcx
	movq	-24(%rbp), %rax
	movq	%rcx, %rsi
	movq	%rax, %rdi
	call	_ZNSt20__uninitialized_copyILb1EE13__uninit_copyISt13move_iteratorIPdES3_EET0_T_S6_S5_
	leave
	.cfi_def_cfa 7, 8
	ret
	.cfi_endproc
.LFE2868:
	.size	_ZSt18uninitialized_copyISt13move_iteratorIPdES1_ET0_T_S4_S3_, .-_ZSt18uninitialized_copyISt13move_iteratorIPdES1_ET0_T_S4_S3_
	.section	.text._ZNSt16allocator_traitsISaImEE8max_sizeERKS0_,"axG",@progbits,_ZNSt16allocator_traitsISaImEE8max_sizeERKS0_,comdat
	.weak	_ZNSt16allocator_traitsISaImEE8max_sizeERKS0_
	.type	_ZNSt16allocator_traitsISaImEE8max_sizeERKS0_, @function
_ZNSt16allocator_traitsISaImEE8max_sizeERKS0_:
.LFB2897:
	.cfi_startproc
	pushq	%rbp
	.cfi_def_cfa_offset 16
	.cfi_offset 6, -16
	movq	%rsp, %rbp
	.cfi_def_cfa_register 6
	subq	$16, %rsp
	movq	%rdi, -8(%rbp)
	movq	-8(%rbp), %rax
	movq	%rax, %rdi
	call	_ZNK9__gnu_cxx13new_allocatorImE8max_sizeEv
	leave
	.cfi_def_cfa 7, 8
	ret
	.cfi_endproc
.LFE2897:
	.size	_ZNSt16allocator_traitsISaImEE8max_sizeERKS0_, .-_ZNSt16allocator_traitsISaImEE8max_sizeERKS0_
	.section	.text._ZSt3minImERKT_S2_S2_,"axG",@progbits,_ZSt3minImERKT_S2_S2_,comdat
	.weak	_ZSt3minImERKT_S2_S2_
	.type	_ZSt3minImERKT_S2_S2_, @function
_ZSt3minImERKT_S2_S2_:
.LFB2898:
	.cfi_startproc
	pushq	%rbp
	.cfi_def_cfa_offset 16
	.cfi_offset 6, -16
	movq	%rsp, %rbp
	.cfi_def_cfa_register 6
	movq	%rdi, -8(%rbp)
	movq	%rsi, -16(%rbp)
	movq	-16(%rbp), %rax
	movq	(%rax), %rdx
	movq	-8(%rbp), %rax
	movq	(%rax), %rax
	cmpq	%rax, %rdx
	jnb	.L276
	movq	-16(%rbp), %rax
	jmp	.L277
.L276:
	movq	-8(%rbp), %rax
.L277:
	popq	%rbp
	.cfi_def_cfa 7, 8
	ret
	.cfi_endproc
.LFE2898:
	.size	_ZSt3minImERKT_S2_S2_, .-_ZSt3minImERKT_S2_S2_
	.section	.text._ZNK9__gnu_cxx13new_allocatorImE11_M_max_sizeEv,"axG",@progbits,_ZNK9__gnu_cxx13new_allocatorImE11_M_max_sizeEv,comdat
	.align 2
	.weak	_ZNK9__gnu_cxx13new_allocatorImE11_M_max_sizeEv
	.type	_ZNK9__gnu_cxx13new_allocatorImE11_M_max_sizeEv, @function
_ZNK9__gnu_cxx13new_allocatorImE11_M_max_sizeEv:
.LFB2899:
	.cfi_startproc
	pushq	%rbp
	.cfi_def_cfa_offset 16
	.cfi_offset 6, -16
	movq	%rsp, %rbp
	.cfi_def_cfa_register 6
	movq	%rdi, -8(%rbp)
	movabsq	$1152921504606846975, %rax
	popq	%rbp
	.cfi_def_cfa 7, 8
	ret
	.cfi_endproc
.LFE2899:
	.size	_ZNK9__gnu_cxx13new_allocatorImE11_M_max_sizeEv, .-_ZNK9__gnu_cxx13new_allocatorImE11_M_max_sizeEv
	.section	.text._ZSt12__niter_baseIPmET_S1_,"axG",@progbits,_ZSt12__niter_baseIPmET_S1_,comdat
	.weak	_ZSt12__niter_baseIPmET_S1_
	.type	_ZSt12__niter_baseIPmET_S1_, @function
_ZSt12__niter_baseIPmET_S1_:
.LFB2900:
	.cfi_startproc
	pushq	%rbp
	.cfi_def_cfa_offset 16
	.cfi_offset 6, -16
	movq	%rsp, %rbp
	.cfi_def_cfa_register 6
	movq	%rdi, -8(%rbp)
	movq	-8(%rbp), %rax
	popq	%rbp
	.cfi_def_cfa 7, 8
	ret
	.cfi_endproc
.LFE2900:
	.size	_ZSt12__niter_baseIPmET_S1_, .-_ZSt12__niter_baseIPmET_S1_
	.section	.text._ZSt14__relocate_a_1ImmENSt9enable_ifIXsrSt24__is_bitwise_relocatableIT_vE5valueEPS2_E4typeES4_S4_S4_RSaIT0_E,"axG",@progbits,_ZSt14__relocate_a_1ImmENSt9enable_ifIXsrSt24__is_bitwise_relocatableIT_vE5valueEPS2_E4typeES4_S4_S4_RSaIT0_E,comdat
	.weak	_ZSt14__relocate_a_1ImmENSt9enable_ifIXsrSt24__is_bitwise_relocatableIT_vE5valueEPS2_E4typeES4_S4_S4_RSaIT0_E
	.type	_ZSt14__relocate_a_1ImmENSt9enable_ifIXsrSt24__is_bitwise_relocatableIT_vE5valueEPS2_E4typeES4_S4_S4_RSaIT0_E, @function
_ZSt14__relocate_a_1ImmENSt9enable_ifIXsrSt24__is_bitwise_relocatableIT_vE5valueEPS2_E4typeES4_S4_S4_RSaIT0_E:
.LFB2901:
	.cfi_startproc
	pushq	%rbp
	.cfi_def_cfa_offset 16
	.cfi_offset 6, -16
	movq	%rsp, %rbp
	.cfi_def_cfa_register 6
	subq	$48, %rsp
	movq	%rdi, -24(%rbp)
	movq	%rsi, -32(%rbp)
	movq	%rdx, -40(%rbp)
	movq	%rcx, -48(%rbp)
	movq	-32(%rbp), %rax
	subq	-24(%rbp), %rax
	sarq	$3, %rax
	movq	%rax, -8(%rbp)
	cmpq	$0, -8(%rbp)
	jle	.L283
	movq	-8(%rbp), %rax
	leaq	0(,%rax,8), %rdx
	movq	-24(%rbp), %rcx
	movq	-40(%rbp), %rax
	movq	%rcx, %rsi
	movq	%rax, %rdi
	call	memmove@PLT
.L283:
	movq	-8(%rbp), %rax
	leaq	0(,%rax,8), %rdx
	movq	-40(%rbp), %rax
	addq	%rdx, %rax
	leave
	.cfi_def_cfa 7, 8
	ret
	.cfi_endproc
.LFE2901:
	.size	_ZSt14__relocate_a_1ImmENSt9enable_ifIXsrSt24__is_bitwise_relocatableIT_vE5valueEPS2_E4typeES4_S4_S4_RSaIT0_E, .-_ZSt14__relocate_a_1ImmENSt9enable_ifIXsrSt24__is_bitwise_relocatableIT_vE5valueEPS2_E4typeES4_S4_S4_RSaIT0_E
	.section	.text._ZSt4moveIRPmEONSt16remove_referenceIT_E4typeEOS3_,"axG",@progbits,_ZSt4moveIRPmEONSt16remove_referenceIT_E4typeEOS3_,comdat
	.weak	_ZSt4moveIRPmEONSt16remove_referenceIT_E4typeEOS3_
	.type	_ZSt4moveIRPmEONSt16remove_referenceIT_E4typeEOS3_, @function
_ZSt4moveIRPmEONSt16remove_referenceIT_E4typeEOS3_:
.LFB2902:
	.cfi_startproc
	pushq	%rbp
	.cfi_def_cfa_offset 16
	.cfi_offset 6, -16
	movq	%rsp, %rbp
	.cfi_def_cfa_register 6
	movq	%rdi, -8(%rbp)
	movq	-8(%rbp), %rax
	popq	%rbp
	.cfi_def_cfa 7, 8
	ret
	.cfi_endproc
.LFE2902:
	.size	_ZSt4moveIRPmEONSt16remove_referenceIT_E4typeEOS3_, .-_ZSt4moveIRPmEONSt16remove_referenceIT_E4typeEOS3_
	.section	.text._ZNSt20__uninitialized_copyILb1EE13__uninit_copyISt13move_iteratorIPmES3_EET0_T_S6_S5_,"axG",@progbits,_ZNSt20__uninitialized_copyILb1EE13__uninit_copyISt13move_iteratorIPmES3_EET0_T_S6_S5_,comdat
	.weak	_ZNSt20__uninitialized_copyILb1EE13__uninit_copyISt13move_iteratorIPmES3_EET0_T_S6_S5_
	.type	_ZNSt20__uninitialized_copyILb1EE13__uninit_copyISt13move_iteratorIPmES3_EET0_T_S6_S5_, @function
_ZNSt20__uninitialized_copyILb1EE13__uninit_copyISt13move_iteratorIPmES3_EET0_T_S6_S5_:
.LFB2903:
	.cfi_startproc
	pushq	%rbp
	.cfi_def_cfa_offset 16
	.cfi_offset 6, -16
	movq	%rsp, %rbp
	.cfi_def_cfa_register 6
	subq	$32, %rsp
	movq	%rdi, -8(%rbp)
	movq	%rsi, -16(%rbp)
	movq	%rdx, -24(%rbp)
	movq	-24(%rbp), %rdx
	movq	-16(%rbp), %rcx
	movq	-8(%rbp), %rax
	movq	%rcx, %rsi
	movq	%rax, %rdi
	call	_ZSt4copyISt13move_iteratorIPmES1_ET0_T_S4_S3_
	leave
	.cfi_def_cfa 7, 8
	ret
	.cfi_endproc
.LFE2903:
	.size	_ZNSt20__uninitialized_copyILb1EE13__uninit_copyISt13move_iteratorIPmES3_EET0_T_S6_S5_, .-_ZNSt20__uninitialized_copyILb1EE13__uninit_copyISt13move_iteratorIPmES3_EET0_T_S6_S5_
	.section	.text._ZNSt16allocator_traitsISaIdEE8max_sizeERKS0_,"axG",@progbits,_ZNSt16allocator_traitsISaIdEE8max_sizeERKS0_,comdat
	.weak	_ZNSt16allocator_traitsISaIdEE8max_sizeERKS0_
	.type	_ZNSt16allocator_traitsISaIdEE8max_sizeERKS0_, @function
_ZNSt16allocator_traitsISaIdEE8max_sizeERKS0_:
.LFB2904:
	.cfi_startproc
	pushq	%rbp
	.cfi_def_cfa_offset 16
	.cfi_offset 6, -16
	movq	%rsp, %rbp
	.cfi_def_cfa_register 6
	subq	$16, %rsp
	movq	%rdi, -8(%rbp)
	movq	-8(%rbp), %rax
	movq	%rax, %rdi
	call	_ZNK9__gnu_cxx13new_allocatorIdE8max_sizeEv
	leave
	.cfi_def_cfa 7, 8
	ret
	.cfi_endproc
.LFE2904:
	.size	_ZNSt16allocator_traitsISaIdEE8max_sizeERKS0_, .-_ZNSt16allocator_traitsISaIdEE8max_sizeERKS0_
	.section	.text._ZNK9__gnu_cxx13new_allocatorIdE11_M_max_sizeEv,"axG",@progbits,_ZNK9__gnu_cxx13new_allocatorIdE11_M_max_sizeEv,comdat
	.align 2
	.weak	_ZNK9__gnu_cxx13new_allocatorIdE11_M_max_sizeEv
	.type	_ZNK9__gnu_cxx13new_allocatorIdE11_M_max_sizeEv, @function
_ZNK9__gnu_cxx13new_allocatorIdE11_M_max_sizeEv:
.LFB2905:
	.cfi_startproc
	pushq	%rbp
	.cfi_def_cfa_offset 16
	.cfi_offset 6, -16
	movq	%rsp, %rbp
	.cfi_def_cfa_register 6
	movq	%rdi, -8(%rbp)
	movabsq	$1152921504606846975, %rax
	popq	%rbp
	.cfi_def_cfa 7, 8
	ret
	.cfi_endproc
.LFE2905:
	.size	_ZNK9__gnu_cxx13new_allocatorIdE11_M_max_sizeEv, .-_ZNK9__gnu_cxx13new_allocatorIdE11_M_max_sizeEv
	.section	.text._ZSt12__niter_baseIPdET_S1_,"axG",@progbits,_ZSt12__niter_baseIPdET_S1_,comdat
	.weak	_ZSt12__niter_baseIPdET_S1_
	.type	_ZSt12__niter_baseIPdET_S1_, @function
_ZSt12__niter_baseIPdET_S1_:
.LFB2906:
	.cfi_startproc
	pushq	%rbp
	.cfi_def_cfa_offset 16
	.cfi_offset 6, -16
	movq	%rsp, %rbp
	.cfi_def_cfa_register 6
	movq	%rdi, -8(%rbp)
	movq	-8(%rbp), %rax
	popq	%rbp
	.cfi_def_cfa 7, 8
	ret
	.cfi_endproc
.LFE2906:
	.size	_ZSt12__niter_baseIPdET_S1_, .-_ZSt12__niter_baseIPdET_S1_
	.section	.text._ZSt14__relocate_a_1IddENSt9enable_ifIXsrSt24__is_bitwise_relocatableIT_vE5valueEPS2_E4typeES4_S4_S4_RSaIT0_E,"axG",@progbits,_ZSt14__relocate_a_1IddENSt9enable_ifIXsrSt24__is_bitwise_relocatableIT_vE5valueEPS2_E4typeES4_S4_S4_RSaIT0_E,comdat
	.weak	_ZSt14__relocate_a_1IddENSt9enable_ifIXsrSt24__is_bitwise_relocatableIT_vE5valueEPS2_E4typeES4_S4_S4_RSaIT0_E
	.type	_ZSt14__relocate_a_1IddENSt9enable_ifIXsrSt24__is_bitwise_relocatableIT_vE5valueEPS2_E4typeES4_S4_S4_RSaIT0_E, @function
_ZSt14__relocate_a_1IddENSt9enable_ifIXsrSt24__is_bitwise_relocatableIT_vE5valueEPS2_E4typeES4_S4_S4_RSaIT0_E:
.LFB2907:
	.cfi_startproc
	pushq	%rbp
	.cfi_def_cfa_offset 16
	.cfi_offset 6, -16
	movq	%rsp, %rbp
	.cfi_def_cfa_register 6
	subq	$48, %rsp
	movq	%rdi, -24(%rbp)
	movq	%rsi, -32(%rbp)
	movq	%rdx, -40(%rbp)
	movq	%rcx, -48(%rbp)
	movq	-32(%rbp), %rax
	subq	-24(%rbp), %rax
	sarq	$3, %rax
	movq	%rax, -8(%rbp)
	cmpq	$0, -8(%rbp)
	jle	.L296
	movq	-8(%rbp), %rax
	leaq	0(,%rax,8), %rdx
	movq	-24(%rbp), %rcx
	movq	-40(%rbp), %rax
	movq	%rcx, %rsi
	movq	%rax, %rdi
	call	memmove@PLT
.L296:
	movq	-8(%rbp), %rax
	leaq	0(,%rax,8), %rdx
	movq	-40(%rbp), %rax
	addq	%rdx, %rax
	leave
	.cfi_def_cfa 7, 8
	ret
	.cfi_endproc
.LFE2907:
	.size	_ZSt14__relocate_a_1IddENSt9enable_ifIXsrSt24__is_bitwise_relocatableIT_vE5valueEPS2_E4typeES4_S4_S4_RSaIT0_E, .-_ZSt14__relocate_a_1IddENSt9enable_ifIXsrSt24__is_bitwise_relocatableIT_vE5valueEPS2_E4typeES4_S4_S4_RSaIT0_E
	.section	.text._ZSt4moveIRPdEONSt16remove_referenceIT_E4typeEOS3_,"axG",@progbits,_ZSt4moveIRPdEONSt16remove_referenceIT_E4typeEOS3_,comdat
	.weak	_ZSt4moveIRPdEONSt16remove_referenceIT_E4typeEOS3_
	.type	_ZSt4moveIRPdEONSt16remove_referenceIT_E4typeEOS3_, @function
_ZSt4moveIRPdEONSt16remove_referenceIT_E4typeEOS3_:
.LFB2908:
	.cfi_startproc
	pushq	%rbp
	.cfi_def_cfa_offset 16
	.cfi_offset 6, -16
	movq	%rsp, %rbp
	.cfi_def_cfa_register 6
	movq	%rdi, -8(%rbp)
	movq	-8(%rbp), %rax
	popq	%rbp
	.cfi_def_cfa 7, 8
	ret
	.cfi_endproc
.LFE2908:
	.size	_ZSt4moveIRPdEONSt16remove_referenceIT_E4typeEOS3_, .-_ZSt4moveIRPdEONSt16remove_referenceIT_E4typeEOS3_
	.section	.text._ZNSt20__uninitialized_copyILb1EE13__uninit_copyISt13move_iteratorIPdES3_EET0_T_S6_S5_,"axG",@progbits,_ZNSt20__uninitialized_copyILb1EE13__uninit_copyISt13move_iteratorIPdES3_EET0_T_S6_S5_,comdat
	.weak	_ZNSt20__uninitialized_copyILb1EE13__uninit_copyISt13move_iteratorIPdES3_EET0_T_S6_S5_
	.type	_ZNSt20__uninitialized_copyILb1EE13__uninit_copyISt13move_iteratorIPdES3_EET0_T_S6_S5_, @function
_ZNSt20__uninitialized_copyILb1EE13__uninit_copyISt13move_iteratorIPdES3_EET0_T_S6_S5_:
.LFB2909:
	.cfi_startproc
	pushq	%rbp
	.cfi_def_cfa_offset 16
	.cfi_offset 6, -16
	movq	%rsp, %rbp
	.cfi_def_cfa_register 6
	subq	$32, %rsp
	movq	%rdi, -8(%rbp)
	movq	%rsi, -16(%rbp)
	movq	%rdx, -24(%rbp)
	movq	-24(%rbp), %rdx
	movq	-16(%rbp), %rcx
	movq	-8(%rbp), %rax
	movq	%rcx, %rsi
	movq	%rax, %rdi
	call	_ZSt4copyISt13move_iteratorIPdES1_ET0_T_S4_S3_
	leave
	.cfi_def_cfa 7, 8
	ret
	.cfi_endproc
.LFE2909:
	.size	_ZNSt20__uninitialized_copyILb1EE13__uninit_copyISt13move_iteratorIPdES3_EET0_T_S6_S5_, .-_ZNSt20__uninitialized_copyILb1EE13__uninit_copyISt13move_iteratorIPdES3_EET0_T_S6_S5_
	.section	.text._ZNK9__gnu_cxx13new_allocatorImE8max_sizeEv,"axG",@progbits,_ZNK9__gnu_cxx13new_allocatorImE8max_sizeEv,comdat
	.align 2
	.weak	_ZNK9__gnu_cxx13new_allocatorImE8max_sizeEv
	.type	_ZNK9__gnu_cxx13new_allocatorImE8max_sizeEv, @function
_ZNK9__gnu_cxx13new_allocatorImE8max_sizeEv:
.LFB2921:
	.cfi_startproc
	pushq	%rbp
	.cfi_def_cfa_offset 16
	.cfi_offset 6, -16
	movq	%rsp, %rbp
	.cfi_def_cfa_register 6
	subq	$16, %rsp
	movq	%rdi, -8(%rbp)
	movq	-8(%rbp), %rax
	movq	%rax, %rdi
	call	_ZNK9__gnu_cxx13new_allocatorImE11_M_max_sizeEv
	leave
	.cfi_def_cfa 7, 8
	ret
	.cfi_endproc
.LFE2921:
	.size	_ZNK9__gnu_cxx13new_allocatorImE8max_sizeEv, .-_ZNK9__gnu_cxx13new_allocatorImE8max_sizeEv
	.section	.text._ZSt4copyISt13move_iteratorIPmES1_ET0_T_S4_S3_,"axG",@progbits,_ZSt4copyISt13move_iteratorIPmES1_ET0_T_S4_S3_,comdat
	.weak	_ZSt4copyISt13move_iteratorIPmES1_ET0_T_S4_S3_
	.type	_ZSt4copyISt13move_iteratorIPmES1_ET0_T_S4_S3_, @function
_ZSt4copyISt13move_iteratorIPmES1_ET0_T_S4_S3_:
.LFB2922:
	.cfi_startproc
	pushq	%rbp
	.cfi_def_cfa_offset 16
	.cfi_offset 6, -16
	movq	%rsp, %rbp
	.cfi_def_cfa_register 6
	pushq	%rbx
	subq	$40, %rsp
	.cfi_offset 3, -24
	movq	%rdi, -24(%rbp)
	movq	%rsi, -32(%rbp)
	movq	%rdx, -40(%rbp)
	movq	-32(%rbp), %rax
	movq	%rax, %rdi
	call	_ZSt12__miter_baseIPmEDTcl12__miter_basecldtfp_4baseEEESt13move_iteratorIT_E
	movq	%rax, %rbx
	movq	-24(%rbp), %rax
	movq	%rax, %rdi
	call	_ZSt12__miter_baseIPmEDTcl12__miter_basecldtfp_4baseEEESt13move_iteratorIT_E
	movq	%rax, %rcx
	movq	-40(%rbp), %rax
	movq	%rax, %rdx
	movq	%rbx, %rsi
	movq	%rcx, %rdi
	call	_ZSt13__copy_move_aILb1EPmS0_ET1_T0_S2_S1_
	movq	-8(%rbp), %rbx
	leave
	.cfi_def_cfa 7, 8
	ret
	.cfi_endproc
.LFE2922:
	.size	_ZSt4copyISt13move_iteratorIPmES1_ET0_T_S4_S3_, .-_ZSt4copyISt13move_iteratorIPmES1_ET0_T_S4_S3_
	.section	.text._ZNK9__gnu_cxx13new_allocatorIdE8max_sizeEv,"axG",@progbits,_ZNK9__gnu_cxx13new_allocatorIdE8max_sizeEv,comdat
	.align 2
	.weak	_ZNK9__gnu_cxx13new_allocatorIdE8max_sizeEv
	.type	_ZNK9__gnu_cxx13new_allocatorIdE8max_sizeEv, @function
_ZNK9__gnu_cxx13new_allocatorIdE8max_sizeEv:
.LFB2923:
	.cfi_startproc
	pushq	%rbp
	.cfi_def_cfa_offset 16
	.cfi_offset 6, -16
	movq	%rsp, %rbp
	.cfi_def_cfa_register 6
	subq	$16, %rsp
	movq	%rdi, -8(%rbp)
	movq	-8(%rbp), %rax
	movq	%rax, %rdi
	call	_ZNK9__gnu_cxx13new_allocatorIdE11_M_max_sizeEv
	leave
	.cfi_def_cfa 7, 8
	ret
	.cfi_endproc
.LFE2923:
	.size	_ZNK9__gnu_cxx13new_allocatorIdE8max_sizeEv, .-_ZNK9__gnu_cxx13new_allocatorIdE8max_sizeEv
	.section	.text._ZSt4copyISt13move_iteratorIPdES1_ET0_T_S4_S3_,"axG",@progbits,_ZSt4copyISt13move_iteratorIPdES1_ET0_T_S4_S3_,comdat
	.weak	_ZSt4copyISt13move_iteratorIPdES1_ET0_T_S4_S3_
	.type	_ZSt4copyISt13move_iteratorIPdES1_ET0_T_S4_S3_, @function
_ZSt4copyISt13move_iteratorIPdES1_ET0_T_S4_S3_:
.LFB2924:
	.cfi_startproc
	pushq	%rbp
	.cfi_def_cfa_offset 16
	.cfi_offset 6, -16
	movq	%rsp, %rbp
	.cfi_def_cfa_register 6
	pushq	%rbx
	subq	$40, %rsp
	.cfi_offset 3, -24
	movq	%rdi, -24(%rbp)
	movq	%rsi, -32(%rbp)
	movq	%rdx, -40(%rbp)
	movq	-32(%rbp), %rax
	movq	%rax, %rdi
	call	_ZSt12__miter_baseIPdEDTcl12__miter_basecldtfp_4baseEEESt13move_iteratorIT_E
	movq	%rax, %rbx
	movq	-24(%rbp), %rax
	movq	%rax, %rdi
	call	_ZSt12__miter_baseIPdEDTcl12__miter_basecldtfp_4baseEEESt13move_iteratorIT_E
	movq	%rax, %rcx
	movq	-40(%rbp), %rax
	movq	%rax, %rdx
	movq	%rbx, %rsi
	movq	%rcx, %rdi
	call	_ZSt13__copy_move_aILb1EPdS0_ET1_T0_S2_S1_
	movq	-8(%rbp), %rbx
	leave
	.cfi_def_cfa 7, 8
	ret
	.cfi_endproc
.LFE2924:
	.size	_ZSt4copyISt13move_iteratorIPdES1_ET0_T_S4_S3_, .-_ZSt4copyISt13move_iteratorIPdES1_ET0_T_S4_S3_
	.section	.text._ZSt12__miter_baseIPmEDTcl12__miter_basecldtfp_4baseEEESt13move_iteratorIT_E,"axG",@progbits,_ZSt12__miter_baseIPmEDTcl12__miter_basecldtfp_4baseEEESt13move_iteratorIT_E,comdat
	.weak	_ZSt12__miter_baseIPmEDTcl12__miter_basecldtfp_4baseEEESt13move_iteratorIT_E
	.type	_ZSt12__miter_baseIPmEDTcl12__miter_basecldtfp_4baseEEESt13move_iteratorIT_E, @function
_ZSt12__miter_baseIPmEDTcl12__miter_basecldtfp_4baseEEESt13move_iteratorIT_E:
.LFB2929:
	.cfi_startproc
	pushq	%rbp
	.cfi_def_cfa_offset 16
	.cfi_offset 6, -16
	movq	%rsp, %rbp
	.cfi_def_cfa_register 6
	subq	$16, %rsp
	movq	%rdi, -8(%rbp)
	leaq	-8(%rbp), %rax
	movq	%rax, %rdi
	call	_ZNKSt13move_iteratorIPmE4baseEv
	movq	%rax, %rdi
	call	_ZSt12__miter_baseIPmET_S1_
	leave
	.cfi_def_cfa 7, 8
	ret
	.cfi_endproc
.LFE2929:
	.size	_ZSt12__miter_baseIPmEDTcl12__miter_basecldtfp_4baseEEESt13move_iteratorIT_E, .-_ZSt12__miter_baseIPmEDTcl12__miter_basecldtfp_4baseEEESt13move_iteratorIT_E
	.section	.text._ZSt13__copy_move_aILb1EPmS0_ET1_T0_S2_S1_,"axG",@progbits,_ZSt13__copy_move_aILb1EPmS0_ET1_T0_S2_S1_,comdat
	.weak	_ZSt13__copy_move_aILb1EPmS0_ET1_T0_S2_S1_
	.type	_ZSt13__copy_move_aILb1EPmS0_ET1_T0_S2_S1_, @function
_ZSt13__copy_move_aILb1EPmS0_ET1_T0_S2_S1_:
.LFB2930:
	.cfi_startproc
	pushq	%rbp
	.cfi_def_cfa_offset 16
	.cfi_offset 6, -16
	movq	%rsp, %rbp
	.cfi_def_cfa_register 6
	pushq	%r12
	pushq	%rbx
	subq	$32, %rsp
	.cfi_offset 12, -24
	.cfi_offset 3, -32
	movq	%rdi, -24(%rbp)
	movq	%rsi, -32(%rbp)
	movq	%rdx, -40(%rbp)
	movq	-40(%rbp), %rax
	movq	%rax, %rdi
	call	_ZSt12__niter_baseIPmET_S1_
	movq	%rax, %r12
	movq	-32(%rbp), %rax
	movq	%rax, %rdi
	call	_ZSt12__niter_baseIPmET_S1_
	movq	%rax, %rbx
	movq	-24(%rbp), %rax
	movq	%rax, %rdi
	call	_ZSt12__niter_baseIPmET_S1_
	movq	%r12, %rdx
	movq	%rbx, %rsi
	movq	%rax, %rdi
	call	_ZSt14__copy_move_a1ILb1EPmS0_ET1_T0_S2_S1_
	movq	%rax, %rdx
	leaq	-40(%rbp), %rax
	movq	%rdx, %rsi
	movq	%rax, %rdi
	call	_ZSt12__niter_wrapIPmET_RKS1_S1_
	addq	$32, %rsp
	popq	%rbx
	popq	%r12
	popq	%rbp
	.cfi_def_cfa 7, 8
	ret
	.cfi_endproc
.LFE2930:
	.size	_ZSt13__copy_move_aILb1EPmS0_ET1_T0_S2_S1_, .-_ZSt13__copy_move_aILb1EPmS0_ET1_T0_S2_S1_
	.section	.text._ZSt12__miter_baseIPdEDTcl12__miter_basecldtfp_4baseEEESt13move_iteratorIT_E,"axG",@progbits,_ZSt12__miter_baseIPdEDTcl12__miter_basecldtfp_4baseEEESt13move_iteratorIT_E,comdat
	.weak	_ZSt12__miter_baseIPdEDTcl12__miter_basecldtfp_4baseEEESt13move_iteratorIT_E
	.type	_ZSt12__miter_baseIPdEDTcl12__miter_basecldtfp_4baseEEESt13move_iteratorIT_E, @function
_ZSt12__miter_baseIPdEDTcl12__miter_basecldtfp_4baseEEESt13move_iteratorIT_E:
.LFB2931:
	.cfi_startproc
	pushq	%rbp
	.cfi_def_cfa_offset 16
	.cfi_offset 6, -16
	movq	%rsp, %rbp
	.cfi_def_cfa_register 6
	subq	$16, %rsp
	movq	%rdi, -8(%rbp)
	leaq	-8(%rbp), %rax
	movq	%rax, %rdi
	call	_ZNKSt13move_iteratorIPdE4baseEv
	movq	%rax, %rdi
	call	_ZSt12__miter_baseIPdET_S1_
	leave
	.cfi_def_cfa 7, 8
	ret
	.cfi_endproc
.LFE2931:
	.size	_ZSt12__miter_baseIPdEDTcl12__miter_basecldtfp_4baseEEESt13move_iteratorIT_E, .-_ZSt12__miter_baseIPdEDTcl12__miter_basecldtfp_4baseEEESt13move_iteratorIT_E
	.section	.text._ZSt13__copy_move_aILb1EPdS0_ET1_T0_S2_S1_,"axG",@progbits,_ZSt13__copy_move_aILb1EPdS0_ET1_T0_S2_S1_,comdat
	.weak	_ZSt13__copy_move_aILb1EPdS0_ET1_T0_S2_S1_
	.type	_ZSt13__copy_move_aILb1EPdS0_ET1_T0_S2_S1_, @function
_ZSt13__copy_move_aILb1EPdS0_ET1_T0_S2_S1_:
.LFB2932:
	.cfi_startproc
	pushq	%rbp
	.cfi_def_cfa_offset 16
	.cfi_offset 6, -16
	movq	%rsp, %rbp
	.cfi_def_cfa_register 6
	pushq	%r12
	pushq	%rbx
	subq	$32, %rsp
	.cfi_offset 12, -24
	.cfi_offset 3, -32
	movq	%rdi, -24(%rbp)
	movq	%rsi, -32(%rbp)
	movq	%rdx, -40(%rbp)
	movq	-40(%rbp), %rax
	movq	%rax, %rdi
	call	_ZSt12__niter_baseIPdET_S1_
	movq	%rax, %r12
	movq	-32(%rbp), %rax
	movq	%rax, %rdi
	call	_ZSt12__niter_baseIPdET_S1_
	movq	%rax, %rbx
	movq	-24(%rbp), %rax
	movq	%rax, %rdi
	call	_ZSt12__niter_baseIPdET_S1_
	movq	%r12, %rdx
	movq	%rbx, %rsi
	movq	%rax, %rdi
	call	_ZSt14__copy_move_a1ILb1EPdS0_ET1_T0_S2_S1_
	movq	%rax, %rdx
	leaq	-40(%rbp), %rax
	movq	%rdx, %rsi
	movq	%rax, %rdi
	call	_ZSt12__niter_wrapIPdET_RKS1_S1_
	addq	$32, %rsp
	popq	%rbx
	popq	%r12
	popq	%rbp
	.cfi_def_cfa 7, 8
	ret
	.cfi_endproc
.LFE2932:
	.size	_ZSt13__copy_move_aILb1EPdS0_ET1_T0_S2_S1_, .-_ZSt13__copy_move_aILb1EPdS0_ET1_T0_S2_S1_
	.section	.text._ZNKSt13move_iteratorIPmE4baseEv,"axG",@progbits,_ZNKSt13move_iteratorIPmE4baseEv,comdat
	.align 2
	.weak	_ZNKSt13move_iteratorIPmE4baseEv
	.type	_ZNKSt13move_iteratorIPmE4baseEv, @function
_ZNKSt13move_iteratorIPmE4baseEv:
.LFB2933:
	.cfi_startproc
	pushq	%rbp
	.cfi_def_cfa_offset 16
	.cfi_offset 6, -16
	movq	%rsp, %rbp
	.cfi_def_cfa_register 6
	movq	%rdi, -8(%rbp)
	movq	-8(%rbp), %rax
	movq	(%rax), %rax
	popq	%rbp
	.cfi_def_cfa 7, 8
	ret
	.cfi_endproc
.LFE2933:
	.size	_ZNKSt13move_iteratorIPmE4baseEv, .-_ZNKSt13move_iteratorIPmE4baseEv
	.section	.text._ZSt12__miter_baseIPmET_S1_,"axG",@progbits,_ZSt12__miter_baseIPmET_S1_,comdat
	.weak	_ZSt12__miter_baseIPmET_S1_
	.type	_ZSt12__miter_baseIPmET_S1_, @function
_ZSt12__miter_baseIPmET_S1_:
.LFB2934:
	.cfi_startproc
	pushq	%rbp
	.cfi_def_cfa_offset 16
	.cfi_offset 6, -16
	movq	%rsp, %rbp
	.cfi_def_cfa_register 6
	movq	%rdi, -8(%rbp)
	movq	-8(%rbp), %rax
	popq	%rbp
	.cfi_def_cfa 7, 8
	ret
	.cfi_endproc
.LFE2934:
	.size	_ZSt12__miter_baseIPmET_S1_, .-_ZSt12__miter_baseIPmET_S1_
	.section	.text._ZSt14__copy_move_a1ILb1EPmS0_ET1_T0_S2_S1_,"axG",@progbits,_ZSt14__copy_move_a1ILb1EPmS0_ET1_T0_S2_S1_,comdat
	.weak	_ZSt14__copy_move_a1ILb1EPmS0_ET1_T0_S2_S1_
	.type	_ZSt14__copy_move_a1ILb1EPmS0_ET1_T0_S2_S1_, @function
_ZSt14__copy_move_a1ILb1EPmS0_ET1_T0_S2_S1_:
.LFB2935:
	.cfi_startproc
	pushq	%rbp
	.cfi_def_cfa_offset 16
	.cfi_offset 6, -16
	movq	%rsp, %rbp
	.cfi_def_cfa_register 6
	subq	$32, %rsp
	movq	%rdi, -8(%rbp)
	movq	%rsi, -16(%rbp)
	movq	%rdx, -24(%rbp)
	movq	-24(%rbp), %rdx
	movq	-16(%rbp), %rcx
	movq	-8(%rbp), %rax
	movq	%rcx, %rsi
	movq	%rax, %rdi
	call	_ZSt14__copy_move_a2ILb1EPmS0_ET1_T0_S2_S1_
	leave
	.cfi_def_cfa 7, 8
	ret
	.cfi_endproc
.LFE2935:
	.size	_ZSt14__copy_move_a1ILb1EPmS0_ET1_T0_S2_S1_, .-_ZSt14__copy_move_a1ILb1EPmS0_ET1_T0_S2_S1_
	.section	.text._ZSt12__niter_wrapIPmET_RKS1_S1_,"axG",@progbits,_ZSt12__niter_wrapIPmET_RKS1_S1_,comdat
	.weak	_ZSt12__niter_wrapIPmET_RKS1_S1_
	.type	_ZSt12__niter_wrapIPmET_RKS1_S1_, @function
_ZSt12__niter_wrapIPmET_RKS1_S1_:
.LFB2936:
	.cfi_startproc
	pushq	%rbp
	.cfi_def_cfa_offset 16
	.cfi_offset 6, -16
	movq	%rsp, %rbp
	.cfi_def_cfa_register 6
	movq	%rdi, -8(%rbp)
	movq	%rsi, -16(%rbp)
	movq	-16(%rbp), %rax
	popq	%rbp
	.cfi_def_cfa 7, 8
	ret
	.cfi_endproc
.LFE2936:
	.size	_ZSt12__niter_wrapIPmET_RKS1_S1_, .-_ZSt12__niter_wrapIPmET_RKS1_S1_
	.section	.text._ZNKSt13move_iteratorIPdE4baseEv,"axG",@progbits,_ZNKSt13move_iteratorIPdE4baseEv,comdat
	.align 2
	.weak	_ZNKSt13move_iteratorIPdE4baseEv
	.type	_ZNKSt13move_iteratorIPdE4baseEv, @function
_ZNKSt13move_iteratorIPdE4baseEv:
.LFB2937:
	.cfi_startproc
	pushq	%rbp
	.cfi_def_cfa_offset 16
	.cfi_offset 6, -16
	movq	%rsp, %rbp
	.cfi_def_cfa_register 6
	movq	%rdi, -8(%rbp)
	movq	-8(%rbp), %rax
	movq	(%rax), %rax
	popq	%rbp
	.cfi_def_cfa 7, 8
	ret
	.cfi_endproc
.LFE2937:
	.size	_ZNKSt13move_iteratorIPdE4baseEv, .-_ZNKSt13move_iteratorIPdE4baseEv
	.section	.text._ZSt12__miter_baseIPdET_S1_,"axG",@progbits,_ZSt12__miter_baseIPdET_S1_,comdat
	.weak	_ZSt12__miter_baseIPdET_S1_
	.type	_ZSt12__miter_baseIPdET_S1_, @function
_ZSt12__miter_baseIPdET_S1_:
.LFB2938:
	.cfi_startproc
	pushq	%rbp
	.cfi_def_cfa_offset 16
	.cfi_offset 6, -16
	movq	%rsp, %rbp
	.cfi_def_cfa_register 6
	movq	%rdi, -8(%rbp)
	movq	-8(%rbp), %rax
	popq	%rbp
	.cfi_def_cfa 7, 8
	ret
	.cfi_endproc
.LFE2938:
	.size	_ZSt12__miter_baseIPdET_S1_, .-_ZSt12__miter_baseIPdET_S1_
	.section	.text._ZSt14__copy_move_a1ILb1EPdS0_ET1_T0_S2_S1_,"axG",@progbits,_ZSt14__copy_move_a1ILb1EPdS0_ET1_T0_S2_S1_,comdat
	.weak	_ZSt14__copy_move_a1ILb1EPdS0_ET1_T0_S2_S1_
	.type	_ZSt14__copy_move_a1ILb1EPdS0_ET1_T0_S2_S1_, @function
_ZSt14__copy_move_a1ILb1EPdS0_ET1_T0_S2_S1_:
.LFB2939:
	.cfi_startproc
	pushq	%rbp
	.cfi_def_cfa_offset 16
	.cfi_offset 6, -16
	movq	%rsp, %rbp
	.cfi_def_cfa_register 6
	subq	$32, %rsp
	movq	%rdi, -8(%rbp)
	movq	%rsi, -16(%rbp)
	movq	%rdx, -24(%rbp)
	movq	-24(%rbp), %rdx
	movq	-16(%rbp), %rcx
	movq	-8(%rbp), %rax
	movq	%rcx, %rsi
	movq	%rax, %rdi
	call	_ZSt14__copy_move_a2ILb1EPdS0_ET1_T0_S2_S1_
	leave
	.cfi_def_cfa 7, 8
	ret
	.cfi_endproc
.LFE2939:
	.size	_ZSt14__copy_move_a1ILb1EPdS0_ET1_T0_S2_S1_, .-_ZSt14__copy_move_a1ILb1EPdS0_ET1_T0_S2_S1_
	.section	.text._ZSt12__niter_wrapIPdET_RKS1_S1_,"axG",@progbits,_ZSt12__niter_wrapIPdET_RKS1_S1_,comdat
	.weak	_ZSt12__niter_wrapIPdET_RKS1_S1_
	.type	_ZSt12__niter_wrapIPdET_RKS1_S1_, @function
_ZSt12__niter_wrapIPdET_RKS1_S1_:
.LFB2940:
	.cfi_startproc
	pushq	%rbp
	.cfi_def_cfa_offset 16
	.cfi_offset 6, -16
	movq	%rsp, %rbp
	.cfi_def_cfa_register 6
	movq	%rdi, -8(%rbp)
	movq	%rsi, -16(%rbp)
	movq	-16(%rbp), %rax
	popq	%rbp
	.cfi_def_cfa 7, 8
	ret
	.cfi_endproc
.LFE2940:
	.size	_ZSt12__niter_wrapIPdET_RKS1_S1_, .-_ZSt12__niter_wrapIPdET_RKS1_S1_
	.section	.text._ZSt14__copy_move_a2ILb1EPmS0_ET1_T0_S2_S1_,"axG",@progbits,_ZSt14__copy_move_a2ILb1EPmS0_ET1_T0_S2_S1_,comdat
	.weak	_ZSt14__copy_move_a2ILb1EPmS0_ET1_T0_S2_S1_
	.type	_ZSt14__copy_move_a2ILb1EPmS0_ET1_T0_S2_S1_, @function
_ZSt14__copy_move_a2ILb1EPmS0_ET1_T0_S2_S1_:
.LFB2941:
	.cfi_startproc
	pushq	%rbp
	.cfi_def_cfa_offset 16
	.cfi_offset 6, -16
	movq	%rsp, %rbp
	.cfi_def_cfa_register 6
	subq	$32, %rsp
	movq	%rdi, -8(%rbp)
	movq	%rsi, -16(%rbp)
	movq	%rdx, -24(%rbp)
	movq	-24(%rbp), %rdx
	movq	-16(%rbp), %rcx
	movq	-8(%rbp), %rax
	movq	%rcx, %rsi
	movq	%rax, %rdi
	call	_ZNSt11__copy_moveILb1ELb1ESt26random_access_iterator_tagE8__copy_mImEEPT_PKS3_S6_S4_
	leave
	.cfi_def_cfa 7, 8
	ret
	.cfi_endproc
.LFE2941:
	.size	_ZSt14__copy_move_a2ILb1EPmS0_ET1_T0_S2_S1_, .-_ZSt14__copy_move_a2ILb1EPmS0_ET1_T0_S2_S1_
	.section	.text._ZSt14__copy_move_a2ILb1EPdS0_ET1_T0_S2_S1_,"axG",@progbits,_ZSt14__copy_move_a2ILb1EPdS0_ET1_T0_S2_S1_,comdat
	.weak	_ZSt14__copy_move_a2ILb1EPdS0_ET1_T0_S2_S1_
	.type	_ZSt14__copy_move_a2ILb1EPdS0_ET1_T0_S2_S1_, @function
_ZSt14__copy_move_a2ILb1EPdS0_ET1_T0_S2_S1_:
.LFB2942:
	.cfi_startproc
	pushq	%rbp
	.cfi_def_cfa_offset 16
	.cfi_offset 6, -16
	movq	%rsp, %rbp
	.cfi_def_cfa_register 6
	subq	$32, %rsp
	movq	%rdi, -8(%rbp)
	movq	%rsi, -16(%rbp)
	movq	%rdx, -24(%rbp)
	movq	-24(%rbp), %rdx
	movq	-16(%rbp), %rcx
	movq	-8(%rbp), %rax
	movq	%rcx, %rsi
	movq	%rax, %rdi
	call	_ZNSt11__copy_moveILb1ELb1ESt26random_access_iterator_tagE8__copy_mIdEEPT_PKS3_S6_S4_
	leave
	.cfi_def_cfa 7, 8
	ret
	.cfi_endproc
.LFE2942:
	.size	_ZSt14__copy_move_a2ILb1EPdS0_ET1_T0_S2_S1_, .-_ZSt14__copy_move_a2ILb1EPdS0_ET1_T0_S2_S1_
	.section	.text._ZNSt11__copy_moveILb1ELb1ESt26random_access_iterator_tagE8__copy_mImEEPT_PKS3_S6_S4_,"axG",@progbits,_ZNSt11__copy_moveILb1ELb1ESt26random_access_iterator_tagE8__copy_mImEEPT_PKS3_S6_S4_,comdat
	.weak	_ZNSt11__copy_moveILb1ELb1ESt26random_access_iterator_tagE8__copy_mImEEPT_PKS3_S6_S4_
	.type	_ZNSt11__copy_moveILb1ELb1ESt26random_access_iterator_tagE8__copy_mImEEPT_PKS3_S6_S4_, @function
_ZNSt11__copy_moveILb1ELb1ESt26random_access_iterator_tagE8__copy_mImEEPT_PKS3_S6_S4_:
.LFB2943:
	.cfi_startproc
	pushq	%rbp
	.cfi_def_cfa_offset 16
	.cfi_offset 6, -16
	movq	%rsp, %rbp
	.cfi_def_cfa_register 6
	subq	$48, %rsp
	movq	%rdi, -24(%rbp)
	movq	%rsi, -32(%rbp)
	movq	%rdx, -40(%rbp)
	movq	-32(%rbp), %rax
	subq	-24(%rbp), %rax
	sarq	$3, %rax
	movq	%rax, -8(%rbp)
	cmpq	$0, -8(%rbp)
	je	.L339
	movq	-8(%rbp), %rax
	leaq	0(,%rax,8), %rdx
	movq	-24(%rbp), %rcx
	movq	-40(%rbp), %rax
	movq	%rcx, %rsi
	movq	%rax, %rdi
	call	memmove@PLT
.L339:
	movq	-8(%rbp), %rax
	leaq	0(,%rax,8), %rdx
	movq	-40(%rbp), %rax
	addq	%rdx, %rax
	leave
	.cfi_def_cfa 7, 8
	ret
	.cfi_endproc
.LFE2943:
	.size	_ZNSt11__copy_moveILb1ELb1ESt26random_access_iterator_tagE8__copy_mImEEPT_PKS3_S6_S4_, .-_ZNSt11__copy_moveILb1ELb1ESt26random_access_iterator_tagE8__copy_mImEEPT_PKS3_S6_S4_
	.section	.text._ZNSt11__copy_moveILb1ELb1ESt26random_access_iterator_tagE8__copy_mIdEEPT_PKS3_S6_S4_,"axG",@progbits,_ZNSt11__copy_moveILb1ELb1ESt26random_access_iterator_tagE8__copy_mIdEEPT_PKS3_S6_S4_,comdat
	.weak	_ZNSt11__copy_moveILb1ELb1ESt26random_access_iterator_tagE8__copy_mIdEEPT_PKS3_S6_S4_
	.type	_ZNSt11__copy_moveILb1ELb1ESt26random_access_iterator_tagE8__copy_mIdEEPT_PKS3_S6_S4_, @function
_ZNSt11__copy_moveILb1ELb1ESt26random_access_iterator_tagE8__copy_mIdEEPT_PKS3_S6_S4_:
.LFB2944:
	.cfi_startproc
	pushq	%rbp
	.cfi_def_cfa_offset 16
	.cfi_offset 6, -16
	movq	%rsp, %rbp
	.cfi_def_cfa_register 6
	subq	$48, %rsp
	movq	%rdi, -24(%rbp)
	movq	%rsi, -32(%rbp)
	movq	%rdx, -40(%rbp)
	movq	-32(%rbp), %rax
	subq	-24(%rbp), %rax
	sarq	$3, %rax
	movq	%rax, -8(%rbp)
	cmpq	$0, -8(%rbp)
	je	.L342
	movq	-8(%rbp), %rax
	leaq	0(,%rax,8), %rdx
	movq	-24(%rbp), %rcx
	movq	-40(%rbp), %rax
	movq	%rcx, %rsi
	movq	%rax, %rdi
	call	memmove@PLT
.L342:
	movq	-8(%rbp), %rax
	leaq	0(,%rax,8), %rdx
	movq	-40(%rbp), %rax
	addq	%rdx, %rax
	leave
	.cfi_def_cfa 7, 8
	ret
	.cfi_endproc
.LFE2944:
	.size	_ZNSt11__copy_moveILb1ELb1ESt26random_access_iterator_tagE8__copy_mIdEEPT_PKS3_S6_S4_, .-_ZNSt11__copy_moveILb1ELb1ESt26random_access_iterator_tagE8__copy_mIdEEPT_PKS3_S6_S4_
	.text
	.type	_Z41__static_initialization_and_destruction_0ii, @function
_Z41__static_initialization_and_destruction_0ii:
.LFB2945:
	.cfi_startproc
	pushq	%rbp
	.cfi_def_cfa_offset 16
	.cfi_offset 6, -16
	movq	%rsp, %rbp
	.cfi_def_cfa_register 6
	subq	$16, %rsp
	movl	%edi, -4(%rbp)
	movl	%esi, -8(%rbp)
	cmpl	$1, -4(%rbp)
	jne	.L346
	cmpl	$65535, -8(%rbp)
	jne	.L346
	leaq	_ZStL8__ioinit(%rip), %rdi
	call	_ZNSt8ios_base4InitC1Ev@PLT
	leaq	__dso_handle(%rip), %rdx
	leaq	_ZStL8__ioinit(%rip), %rsi
	movq	_ZNSt8ios_base4InitD1Ev@GOTPCREL(%rip), %rax
	movq	%rax, %rdi
	call	__cxa_atexit@PLT
.L346:
	nop
	leave
	.cfi_def_cfa 7, 8
	ret
	.cfi_endproc
.LFE2945:
	.size	_Z41__static_initialization_and_destruction_0ii, .-_Z41__static_initialization_and_destruction_0ii
	.type	_GLOBAL__sub_I__Z9rand_fillPhm, @function
_GLOBAL__sub_I__Z9rand_fillPhm:
.LFB2946:
	.cfi_startproc
	pushq	%rbp
	.cfi_def_cfa_offset 16
	.cfi_offset 6, -16
	movq	%rsp, %rbp
	.cfi_def_cfa_register 6
	movl	$65535, %esi
	movl	$1, %edi
	call	_Z41__static_initialization_and_destruction_0ii
	popq	%rbp
	.cfi_def_cfa 7, 8
	ret
	.cfi_endproc
.LFE2946:
	.size	_GLOBAL__sub_I__Z9rand_fillPhm, .-_GLOBAL__sub_I__Z9rand_fillPhm
	.section	.init_array,"aw"
	.align 8
	.quad	_GLOBAL__sub_I__Z9rand_fillPhm
	.text
	.type	_Z16para_unroll_copyPhS_m._omp_fn.0, @function
_Z16para_unroll_copyPhS_m._omp_fn.0:
.LFB2947:
	.cfi_startproc
	pushq	%rbp
	.cfi_def_cfa_offset 16
	.cfi_offset 6, -16
	movq	%rsp, %rbp
	.cfi_def_cfa_register 6
	pushq	%r12
	pushq	%rbx
	subq	$64, %rsp
	.cfi_offset 12, -24
	.cfi_offset 3, -32
	movq	%rdi, -72(%rbp)
	movq	-72(%rbp), %rax
	movq	16(%rax), %rax
	movq	%rax, -32(%rbp)
	movq	-72(%rbp), %rax
	movq	8(%rax), %rax
	movq	%rax, -40(%rbp)
	movq	-72(%rbp), %rax
	movq	(%rax), %rax
	movq	%rax, -48(%rbp)
	movq	-32(%rbp), %rax
	shrq	$4, %rax
	movq	%rax, %rbx
	testq	%rbx, %rbx
	je	.L354
	call	omp_get_num_threads@PLT
	movslq	%eax, %r12
	call	omp_get_thread_num@PLT
	movslq	%eax, %rsi
	movq	%rbx, %rax
	movl	$0, %edx
	divq	%r12
	movq	%rax, %rcx
	movq	%rbx, %rax
	movl	$0, %edx
	divq	%r12
	movq	%rdx, %rax
	cmpq	%rax, %rsi
	jb	.L350
.L353:
	imulq	%rcx, %rsi
	movq	%rsi, %rdx
	addq	%rdx, %rax
	leaq	(%rax,%rcx), %rdx
	cmpq	%rdx, %rax
	jnb	.L354
	movq	%rax, -24(%rbp)
.L352:
	movq	-24(%rbp), %rax
	salq	$7, %rax
	movq	%rax, %rcx
	movq	-40(%rbp), %rax
	addq	%rcx, %rax
	movq	%rax, -56(%rbp)
	movq	-24(%rbp), %rax
	salq	$7, %rax
	movq	%rax, %rcx
	movq	-48(%rbp), %rax
	addq	%rcx, %rax
	movq	%rax, -64(%rbp)
	movq	-64(%rbp), %rax
	movq	(%rax), %rcx
	movq	-56(%rbp), %rax
	movq	%rcx, (%rax)
	movq	-56(%rbp), %rax
	addq	$8, %rax
	movq	-64(%rbp), %rcx
	movq	8(%rcx), %rcx
	movq	%rcx, (%rax)
	movq	-56(%rbp), %rax
	addq	$16, %rax
	movq	-64(%rbp), %rcx
	movq	16(%rcx), %rcx
	movq	%rcx, (%rax)
	movq	-56(%rbp), %rax
	addq	$24, %rax
	movq	-64(%rbp), %rcx
	movq	24(%rcx), %rcx
	movq	%rcx, (%rax)
	movq	-56(%rbp), %rax
	addq	$32, %rax
	movq	-64(%rbp), %rcx
	movq	32(%rcx), %rcx
	movq	%rcx, (%rax)
	movq	-56(%rbp), %rax
	addq	$40, %rax
	movq	-64(%rbp), %rcx
	movq	40(%rcx), %rcx
	movq	%rcx, (%rax)
	movq	-56(%rbp), %rax
	addq	$48, %rax
	movq	-64(%rbp), %rcx
	movq	48(%rcx), %rcx
	movq	%rcx, (%rax)
	movq	-56(%rbp), %rax
	addq	$56, %rax
	movq	-64(%rbp), %rcx
	movq	56(%rcx), %rcx
	movq	%rcx, (%rax)
	movq	-56(%rbp), %rax
	addq	$64, %rax
	movq	-64(%rbp), %rcx
	movq	64(%rcx), %rcx
	movq	%rcx, (%rax)
	movq	-56(%rbp), %rax
	addq	$72, %rax
	movq	-64(%rbp), %rcx
	movq	72(%rcx), %rcx
	movq	%rcx, (%rax)
	movq	-56(%rbp), %rax
	addq	$80, %rax
	movq	-64(%rbp), %rcx
	movq	80(%rcx), %rcx
	movq	%rcx, (%rax)
	movq	-56(%rbp), %rax
	addq	$88, %rax
	movq	-64(%rbp), %rcx
	movq	88(%rcx), %rcx
	movq	%rcx, (%rax)
	movq	-56(%rbp), %rax
	addq	$96, %rax
	movq	-64(%rbp), %rcx
	movq	96(%rcx), %rcx
	movq	%rcx, (%rax)
	movq	-56(%rbp), %rax
	addq	$104, %rax
	movq	-64(%rbp), %rcx
	movq	104(%rcx), %rcx
	movq	%rcx, (%rax)
	movq	-56(%rbp), %rax
	addq	$112, %rax
	movq	-64(%rbp), %rcx
	movq	112(%rcx), %rcx
	movq	%rcx, (%rax)
	movq	-56(%rbp), %rax
	addq	$120, %rax
	movq	-64(%rbp), %rcx
	movq	120(%rcx), %rcx
	movq	%rcx, (%rax)
	incq	-24(%rbp)
	cmpq	%rdx, -24(%rbp)
	jb	.L352
	jmp	.L354
.L350:
	movl	$0, %eax
	incq	%rcx
	jmp	.L353
.L354:
	nop
	addq	$64, %rsp
	popq	%rbx
	popq	%r12
	popq	%rbp
	.cfi_def_cfa 7, 8
	ret
	.cfi_endproc
.LFE2947:
	.size	_Z16para_unroll_copyPhS_m._omp_fn.0, .-_Z16para_unroll_copyPhS_m._omp_fn.0
	.type	_Z15para_int64_copyPhS_m._omp_fn.0, @function
_Z15para_int64_copyPhS_m._omp_fn.0:
.LFB2948:
	.cfi_startproc
	pushq	%rbp
	.cfi_def_cfa_offset 16
	.cfi_offset 6, -16
	movq	%rsp, %rbp
	.cfi_def_cfa_register 6
	pushq	%r12
	pushq	%rbx
	subq	$48, %rsp
	.cfi_offset 12, -24
	.cfi_offset 3, -32
	movq	%rdi, -56(%rbp)
	movq	-56(%rbp), %rax
	movq	16(%rax), %rax
	movq	%rax, -32(%rbp)
	movq	-56(%rbp), %rax
	movq	8(%rax), %rax
	movq	%rax, -40(%rbp)
	movq	-56(%rbp), %rax
	movq	(%rax), %rax
	movq	%rax, -48(%rbp)
	movq	-32(%rbp), %rbx
	testq	%rbx, %rbx
	je	.L361
	call	omp_get_num_threads@PLT
	movslq	%eax, %r12
	call	omp_get_thread_num@PLT
	movslq	%eax, %rsi
	movq	%rbx, %rax
	movl	$0, %edx
	divq	%r12
	movq	%rax, %rcx
	movq	%rbx, %rax
	movl	$0, %edx
	divq	%r12
	movq	%rdx, %rax
	cmpq	%rax, %rsi
	jb	.L357
.L360:
	imulq	%rcx, %rsi
	movq	%rsi, %rdx
	addq	%rdx, %rax
	leaq	(%rax,%rcx), %rdx
	cmpq	%rdx, %rax
	jnb	.L361
	movq	%rax, -24(%rbp)
.L359:
	movq	-24(%rbp), %rax
	leaq	0(,%rax,8), %rcx
	movq	-40(%rbp), %rax
	addq	%rax, %rcx
	movq	-24(%rbp), %rax
	leaq	0(,%rax,8), %rsi
	movq	-48(%rbp), %rax
	addq	%rsi, %rax
	movq	(%rcx), %rcx
	movq	%rcx, (%rax)
	incq	-24(%rbp)
	cmpq	%rdx, -24(%rbp)
	jb	.L359
	jmp	.L361
.L357:
	movl	$0, %eax
	incq	%rcx
	jmp	.L360
.L361:
	nop
	addq	$48, %rsp
	popq	%rbx
	popq	%r12
	popq	%rbp
	.cfi_def_cfa 7, 8
	ret
	.cfi_endproc
.LFE2948:
	.size	_Z15para_int64_copyPhS_m._omp_fn.0, .-_Z15para_int64_copyPhS_m._omp_fn.0
	.type	_Z14para_int8_copyPhS_m._omp_fn.0, @function
_Z14para_int8_copyPhS_m._omp_fn.0:
.LFB2949:
	.cfi_startproc
	pushq	%rbp
	.cfi_def_cfa_offset 16
	.cfi_offset 6, -16
	movq	%rsp, %rbp
	.cfi_def_cfa_register 6
	pushq	%r12
	pushq	%rbx
	subq	$48, %rsp
	.cfi_offset 12, -24
	.cfi_offset 3, -32
	movq	%rdi, -56(%rbp)
	movq	-56(%rbp), %rax
	movq	16(%rax), %rax
	movq	%rax, -32(%rbp)
	movq	-56(%rbp), %rax
	movq	8(%rax), %rax
	movq	%rax, -40(%rbp)
	movq	-56(%rbp), %rax
	movq	(%rax), %rax
	movq	%rax, -48(%rbp)
	movq	-32(%rbp), %rbx
	testq	%rbx, %rbx
	je	.L368
	call	omp_get_num_threads@PLT
	movslq	%eax, %r12
	call	omp_get_thread_num@PLT
	movslq	%eax, %rsi
	movq	%rbx, %rax
	movl	$0, %edx
	divq	%r12
	movq	%rax, %rcx
	movq	%rbx, %rax
	movl	$0, %edx
	divq	%r12
	movq	%rdx, %rax
	cmpq	%rax, %rsi
	jb	.L364
.L367:
	imulq	%rcx, %rsi
	movq	%rsi, %rdx
	addq	%rdx, %rax
	leaq	(%rax,%rcx), %rdx
	cmpq	%rdx, %rax
	jnb	.L368
	movq	%rax, -24(%rbp)
.L366:
	movq	-48(%rbp), %rcx
	movq	-24(%rbp), %rax
	addq	%rcx, %rax
	movq	-40(%rbp), %rsi
	movq	-24(%rbp), %rcx
	addq	%rsi, %rcx
	movzbl	(%rax), %eax
	movb	%al, (%rcx)
	incq	-24(%rbp)
	cmpq	%rdx, -24(%rbp)
	jb	.L366
	jmp	.L368
.L364:
	movl	$0, %eax
	incq	%rcx
	jmp	.L367
.L368:
	nop
	addq	$48, %rsp
	popq	%rbx
	popq	%r12
	popq	%rbp
	.cfi_def_cfa 7, 8
	ret
	.cfi_endproc
.LFE2949:
	.size	_Z14para_int8_copyPhS_m._omp_fn.0, .-_Z14para_int8_copyPhS_m._omp_fn.0
	.section	.rodata
.LC17:
	.string	"omp default thread num: "
	.text
	.type	main._omp_fn.0, @function
main._omp_fn.0:
.LFB2950:
	.cfi_startproc
	.cfi_personality 0x9b,DW.ref.__gxx_personality_v0
	.cfi_lsda 0x1b,.LLSDA2950
	pushq	%rbp
	.cfi_def_cfa_offset 16
	.cfi_offset 6, -16
	movq	%rsp, %rbp
	.cfi_def_cfa_register 6
	pushq	%rbx
	subq	$24, %rsp
	.cfi_offset 3, -24
	movq	%rdi, -24(%rbp)
	call	omp_get_thread_num@PLT
	testl	%eax, %eax
	jne	.L372
	leaq	.LC17(%rip), %rsi
	leaq	_ZSt4cout(%rip), %rdi
	call	_ZStlsISt11char_traitsIcEERSt13basic_ostreamIcT_ES5_PKc@PLT
	movq	%rax, %rbx
	call	omp_get_num_threads@PLT
	movl	%eax, %esi
	movq	%rbx, %rdi
	call	_ZNSolsEi@PLT
	movq	%rax, %rdx
	movq	_ZSt4endlIcSt11char_traitsIcEERSt13basic_ostreamIT_T0_ES6_@GOTPCREL(%rip), %rax
	movq	%rax, %rsi
	movq	%rdx, %rdi
	call	_ZNSolsEPFRSoS_E@PLT
.L372:
	nop
	movq	-8(%rbp), %rbx
	leave
	.cfi_def_cfa 7, 8
	ret
	.cfi_endproc
.LFE2950:
	.section	.gcc_except_table
.LLSDA2950:
	.byte	0xff
	.byte	0xff
	.byte	0x1
	.uleb128 .LLSDACSE2950-.LLSDACSB2950
.LLSDACSB2950:
.LLSDACSE2950:
	.text
	.size	main._omp_fn.0, .-main._omp_fn.0
	.section	.rodata
	.align 8
.LC8:
	.long	0
	.long	1083129856
	.hidden	DW.ref.__gxx_personality_v0
	.weak	DW.ref.__gxx_personality_v0
	.section	.data.rel.local.DW.ref.__gxx_personality_v0,"awG",@progbits,DW.ref.__gxx_personality_v0,comdat
	.align 8
	.type	DW.ref.__gxx_personality_v0, @object
	.size	DW.ref.__gxx_personality_v0, 8
DW.ref.__gxx_personality_v0:
	.quad	__gxx_personality_v0
	.hidden	__dso_handle
	.ident	"GCC: (Debian 10.2.1-6) 10.2.1 20210110"
	.section	.note.GNU-stack,"",@progbits
